Archive member included to satisfy reference by file (symbol)

/Applications/Simplicity Studio.app/Contents/Eclipse/developer/toolchains/gnu_arm/10.3_2021.10/bin/../lib/gcc/arm-none-eabi/10.3.1/thumb/v8-m.main+fp/hard/libgcc.a(_aeabi_ldivmod.o)
                              vscode-build/obj/gecko_sdk_4.3.1/platform/emlib/src/em_eusart.o (__aeabi_ldivmod)
/Applications/Simplicity Studio.app/Contents/Eclipse/developer/toolchains/gnu_arm/10.3_2021.10/bin/../lib/gcc/arm-none-eabi/10.3.1/thumb/v8-m.main+fp/hard/libgcc.a(_aeabi_uldivmod.o)
                              vscode-build/obj/gecko_sdk_4.3.1/platform/emlib/src/em_eusart.o (__aeabi_uldivmod)
/Applications/Simplicity Studio.app/Contents/Eclipse/developer/toolchains/gnu_arm/10.3_2021.10/bin/../lib/gcc/arm-none-eabi/10.3.1/thumb/v8-m.main+fp/hard/libgcc.a(_udivmoddi4.o)
                              /Applications/Simplicity Studio.app/Contents/Eclipse/developer/toolchains/gnu_arm/10.3_2021.10/bin/../lib/gcc/arm-none-eabi/10.3.1/thumb/v8-m.main+fp/hard/libgcc.a(_aeabi_ldivmod.o) (__udivmoddi4)
/Applications/Simplicity Studio.app/Contents/Eclipse/developer/toolchains/gnu_arm/10.3_2021.10/bin/../lib/gcc/arm-none-eabi/10.3.1/thumb/v8-m.main+fp/hard/libgcc.a(_dvmd_tls.o)
                              /Applications/Simplicity Studio.app/Contents/Eclipse/developer/toolchains/gnu_arm/10.3_2021.10/bin/../lib/gcc/arm-none-eabi/10.3.1/thumb/v8-m.main+fp/hard/libgcc.a(_aeabi_ldivmod.o) (__aeabi_ldiv0)
/Applications/Simplicity Studio.app/Contents/Eclipse/developer/toolchains/gnu_arm/10.3_2021.10/bin/../lib/gcc/arm-none-eabi/10.3.1/../../../../arm-none-eabi/lib/thumb/v8-m.main+fp/hard/libc_nano.a(lib_a-ctype_.o)
                              vscode-build/obj/gecko_sdk_4.3.1/platform/common/src/sl_string.o (_ctype_)
/Applications/Simplicity Studio.app/Contents/Eclipse/developer/toolchains/gnu_arm/10.3_2021.10/bin/../lib/gcc/arm-none-eabi/10.3.1/../../../../arm-none-eabi/lib/thumb/v8-m.main+fp/hard/libc_nano.a(lib_a-exit.o)
                              /Applications/Simplicity Studio.app/Contents/Eclipse/developer/toolchains/gnu_arm/10.3_2021.10/bin/../lib/gcc/arm-none-eabi/10.3.1/../../../../arm-none-eabi/lib/thumb/v8-m.main+fp/hard/crt0.o (exit)
/Applications/Simplicity Studio.app/Contents/Eclipse/developer/toolchains/gnu_arm/10.3_2021.10/bin/../lib/gcc/arm-none-eabi/10.3.1/../../../../arm-none-eabi/lib/thumb/v8-m.main+fp/hard/libc_nano.a(lib_a-impure.o)
                              /Applications/Simplicity Studio.app/Contents/Eclipse/developer/toolchains/gnu_arm/10.3_2021.10/bin/../lib/gcc/arm-none-eabi/10.3.1/../../../../arm-none-eabi/lib/thumb/v8-m.main+fp/hard/libc_nano.a(lib_a-exit.o) (_global_impure_ptr)
/Applications/Simplicity Studio.app/Contents/Eclipse/developer/toolchains/gnu_arm/10.3_2021.10/bin/../lib/gcc/arm-none-eabi/10.3.1/../../../../arm-none-eabi/lib/thumb/v8-m.main+fp/hard/libc_nano.a(lib_a-init.o)
                              /Applications/Simplicity Studio.app/Contents/Eclipse/developer/toolchains/gnu_arm/10.3_2021.10/bin/../lib/gcc/arm-none-eabi/10.3.1/../../../../arm-none-eabi/lib/thumb/v8-m.main+fp/hard/crt0.o (__libc_init_array)
/Applications/Simplicity Studio.app/Contents/Eclipse/developer/toolchains/gnu_arm/10.3_2021.10/bin/../lib/gcc/arm-none-eabi/10.3.1/../../../../arm-none-eabi/lib/thumb/v8-m.main+fp/hard/libc_nano.a(lib_a-memcmp.o)
                              vscode-build/obj/gecko_sdk_4.3.1/platform/emdrv/nvm3/src/nvm3_hal_flash.o (memcmp)
/Applications/Simplicity Studio.app/Contents/Eclipse/developer/toolchains/gnu_arm/10.3_2021.10/bin/../lib/gcc/arm-none-eabi/10.3.1/../../../../arm-none-eabi/lib/thumb/v8-m.main+fp/hard/libc_nano.a(lib_a-memcpy-stub.o)
                              vscode-build/obj/gecko_sdk_4.3.1/platform/emdrv/nvm3/src/nvm3_hal_flash.o (memcpy)
/Applications/Simplicity Studio.app/Contents/Eclipse/developer/toolchains/gnu_arm/10.3_2021.10/bin/../lib/gcc/arm-none-eabi/10.3.1/../../../../arm-none-eabi/lib/thumb/v8-m.main+fp/hard/libc_nano.a(lib_a-memmove.o)
                              vscode-build/obj/gecko_sdk_4.3.1/platform/service/cli/src/sl_cli_input.o (memmove)
/Applications/Simplicity Studio.app/Contents/Eclipse/developer/toolchains/gnu_arm/10.3_2021.10/bin/../lib/gcc/arm-none-eabi/10.3.1/../../../../arm-none-eabi/lib/thumb/v8-m.main+fp/hard/libc_nano.a(lib_a-memset.o)
                              /Applications/Simplicity Studio.app/Contents/Eclipse/developer/toolchains/gnu_arm/10.3_2021.10/bin/../lib/gcc/arm-none-eabi/10.3.1/../../../../arm-none-eabi/lib/thumb/v8-m.main+fp/hard/crt0.o (memset)
/Applications/Simplicity Studio.app/Contents/Eclipse/developer/toolchains/gnu_arm/10.3_2021.10/bin/../lib/gcc/arm-none-eabi/10.3.1/../../../../arm-none-eabi/lib/thumb/v8-m.main+fp/hard/libc_nano.a(lib_a-printf.o)
                              vscode-build/obj/nvm3_app.o (printf)
/Applications/Simplicity Studio.app/Contents/Eclipse/developer/toolchains/gnu_arm/10.3_2021.10/bin/../lib/gcc/arm-none-eabi/10.3.1/../../../../arm-none-eabi/lib/thumb/v8-m.main+fp/hard/libc_nano.a(lib_a-puts.o)
                              vscode-build/obj/nvm3_app.o (puts)
/Applications/Simplicity Studio.app/Contents/Eclipse/developer/toolchains/gnu_arm/10.3_2021.10/bin/../lib/gcc/arm-none-eabi/10.3.1/../../../../arm-none-eabi/lib/thumb/v8-m.main+fp/hard/libc_nano.a(lib_a-setvbuf.o)
                              vscode-build/obj/gecko_sdk_4.3.1/platform/service/iostream/src/sl_iostream_stdlib_config.o (setvbuf)
/Applications/Simplicity Studio.app/Contents/Eclipse/developer/toolchains/gnu_arm/10.3_2021.10/bin/../lib/gcc/arm-none-eabi/10.3.1/../../../../arm-none-eabi/lib/thumb/v8-m.main+fp/hard/libc_nano.a(lib_a-strcmp.o)
                              vscode-build/obj/autogen/sl_iostream_handles.o (strcmp)
/Applications/Simplicity Studio.app/Contents/Eclipse/developer/toolchains/gnu_arm/10.3_2021.10/bin/../lib/gcc/arm-none-eabi/10.3.1/../../../../arm-none-eabi/lib/thumb/v8-m.main+fp/hard/libc_nano.a(lib_a-strlen.o)
                              vscode-build/obj/gecko_sdk_4.3.1/platform/service/cli/src/sl_cli_arguments.o (strlen)
/Applications/Simplicity Studio.app/Contents/Eclipse/developer/toolchains/gnu_arm/10.3_2021.10/bin/../lib/gcc/arm-none-eabi/10.3.1/../../../../arm-none-eabi/lib/thumb/v8-m.main+fp/hard/libc_nano.a(lib_a-strncmp.o)
                              vscode-build/obj/gecko_sdk_4.3.1/platform/service/cli/src/sl_cli_command.o (strncmp)
/Applications/Simplicity Studio.app/Contents/Eclipse/developer/toolchains/gnu_arm/10.3_2021.10/bin/../lib/gcc/arm-none-eabi/10.3.1/../../../../arm-none-eabi/lib/thumb/v8-m.main+fp/hard/libc_nano.a(lib_a-strtol.o)
                              vscode-build/obj/gecko_sdk_4.3.1/platform/service/cli/src/sl_cli_arguments.o (strtol)
/Applications/Simplicity Studio.app/Contents/Eclipse/developer/toolchains/gnu_arm/10.3_2021.10/bin/../lib/gcc/arm-none-eabi/10.3.1/../../../../arm-none-eabi/lib/thumb/v8-m.main+fp/hard/libc_nano.a(lib_a-strtoll.o)
                              vscode-build/obj/gecko_sdk_4.3.1/platform/service/cli/src/sl_cli_arguments.o (strtoll)
/Applications/Simplicity Studio.app/Contents/Eclipse/developer/toolchains/gnu_arm/10.3_2021.10/bin/../lib/gcc/arm-none-eabi/10.3.1/../../../../arm-none-eabi/lib/thumb/v8-m.main+fp/hard/libc_nano.a(lib_a-strtoul.o)
                              vscode-build/obj/gecko_sdk_4.3.1/platform/service/cli/src/sl_cli_arguments.o (strtoul)
/Applications/Simplicity Studio.app/Contents/Eclipse/developer/toolchains/gnu_arm/10.3_2021.10/bin/../lib/gcc/arm-none-eabi/10.3.1/../../../../arm-none-eabi/lib/thumb/v8-m.main+fp/hard/libc_nano.a(lib_a-vprintf.o)
                              vscode-build/obj/gecko_sdk_4.3.1/platform/service/cli/src/sl_cli_io.o (vprintf)
/Applications/Simplicity Studio.app/Contents/Eclipse/developer/toolchains/gnu_arm/10.3_2021.10/bin/../lib/gcc/arm-none-eabi/10.3.1/../../../../arm-none-eabi/lib/thumb/v8-m.main+fp/hard/libc_nano.a(lib_a-wbuf.o)
                              /Applications/Simplicity Studio.app/Contents/Eclipse/developer/toolchains/gnu_arm/10.3_2021.10/bin/../lib/gcc/arm-none-eabi/10.3.1/../../../../arm-none-eabi/lib/thumb/v8-m.main+fp/hard/libc_nano.a(lib_a-puts.o) (__swbuf_r)
/Applications/Simplicity Studio.app/Contents/Eclipse/developer/toolchains/gnu_arm/10.3_2021.10/bin/../lib/gcc/arm-none-eabi/10.3.1/../../../../arm-none-eabi/lib/thumb/v8-m.main+fp/hard/libc_nano.a(lib_a-wsetup.o)
                              /Applications/Simplicity Studio.app/Contents/Eclipse/developer/toolchains/gnu_arm/10.3_2021.10/bin/../lib/gcc/arm-none-eabi/10.3.1/../../../../arm-none-eabi/lib/thumb/v8-m.main+fp/hard/libc_nano.a(lib_a-puts.o) (__swsetup_r)
/Applications/Simplicity Studio.app/Contents/Eclipse/developer/toolchains/gnu_arm/10.3_2021.10/bin/../lib/gcc/arm-none-eabi/10.3.1/../../../../arm-none-eabi/lib/thumb/v8-m.main+fp/hard/libc_nano.a(lib_a-errno.o)
                              /Applications/Simplicity Studio.app/Contents/Eclipse/developer/toolchains/gnu_arm/10.3_2021.10/bin/../lib/gcc/arm-none-eabi/10.3.1/../../../../arm-none-eabi/lib/thumb/v8-m.main+fp/hard/libc_nano.a(lib_a-strtol.o) (__errno)
/Applications/Simplicity Studio.app/Contents/Eclipse/developer/toolchains/gnu_arm/10.3_2021.10/bin/../lib/gcc/arm-none-eabi/10.3.1/../../../../arm-none-eabi/lib/thumb/v8-m.main+fp/hard/libc_nano.a(lib_a-fflush.o)
                              /Applications/Simplicity Studio.app/Contents/Eclipse/developer/toolchains/gnu_arm/10.3_2021.10/bin/../lib/gcc/arm-none-eabi/10.3.1/../../../../arm-none-eabi/lib/thumb/v8-m.main+fp/hard/libc_nano.a(lib_a-setvbuf.o) (_fflush_r)
/Applications/Simplicity Studio.app/Contents/Eclipse/developer/toolchains/gnu_arm/10.3_2021.10/bin/../lib/gcc/arm-none-eabi/10.3.1/../../../../arm-none-eabi/lib/thumb/v8-m.main+fp/hard/libc_nano.a(lib_a-findfp.o)
                              /Applications/Simplicity Studio.app/Contents/Eclipse/developer/toolchains/gnu_arm/10.3_2021.10/bin/../lib/gcc/arm-none-eabi/10.3.1/../../../../arm-none-eabi/lib/thumb/v8-m.main+fp/hard/libc_nano.a(lib_a-printf.o) (__sinit)
/Applications/Simplicity Studio.app/Contents/Eclipse/developer/toolchains/gnu_arm/10.3_2021.10/bin/../lib/gcc/arm-none-eabi/10.3.1/../../../../arm-none-eabi/lib/thumb/v8-m.main+fp/hard/libc_nano.a(lib_a-fwalk.o)
                              /Applications/Simplicity Studio.app/Contents/Eclipse/developer/toolchains/gnu_arm/10.3_2021.10/bin/../lib/gcc/arm-none-eabi/10.3.1/../../../../arm-none-eabi/lib/thumb/v8-m.main+fp/hard/libc_nano.a(lib_a-findfp.o) (_fwalk)
/Applications/Simplicity Studio.app/Contents/Eclipse/developer/toolchains/gnu_arm/10.3_2021.10/bin/../lib/gcc/arm-none-eabi/10.3.1/../../../../arm-none-eabi/lib/thumb/v8-m.main+fp/hard/libc_nano.a(lib_a-lock.o)
                              /Applications/Simplicity Studio.app/Contents/Eclipse/developer/toolchains/gnu_arm/10.3_2021.10/bin/../lib/gcc/arm-none-eabi/10.3.1/../../../../arm-none-eabi/lib/thumb/v8-m.main+fp/hard/libc_nano.a(lib_a-findfp.o) (__retarget_lock_init_recursive)
/Applications/Simplicity Studio.app/Contents/Eclipse/developer/toolchains/gnu_arm/10.3_2021.10/bin/../lib/gcc/arm-none-eabi/10.3.1/../../../../arm-none-eabi/lib/thumb/v8-m.main+fp/hard/libc_nano.a(lib_a-makebuf.o)
                              /Applications/Simplicity Studio.app/Contents/Eclipse/developer/toolchains/gnu_arm/10.3_2021.10/bin/../lib/gcc/arm-none-eabi/10.3.1/../../../../arm-none-eabi/lib/thumb/v8-m.main+fp/hard/libc_nano.a(lib_a-setvbuf.o) (__swhatbuf_r)
/Applications/Simplicity Studio.app/Contents/Eclipse/developer/toolchains/gnu_arm/10.3_2021.10/bin/../lib/gcc/arm-none-eabi/10.3.1/../../../../arm-none-eabi/lib/thumb/v8-m.main+fp/hard/libc_nano.a(lib_a-malloc.o)
                              /Applications/Simplicity Studio.app/Contents/Eclipse/developer/toolchains/gnu_arm/10.3_2021.10/bin/../lib/gcc/arm-none-eabi/10.3.1/../../../../arm-none-eabi/lib/thumb/v8-m.main+fp/hard/libc_nano.a(lib_a-setvbuf.o) (malloc)
/Applications/Simplicity Studio.app/Contents/Eclipse/developer/toolchains/gnu_arm/10.3_2021.10/bin/../lib/gcc/arm-none-eabi/10.3.1/../../../../arm-none-eabi/lib/thumb/v8-m.main+fp/hard/libc_nano.a(lib_a-nano-freer.o)
                              /Applications/Simplicity Studio.app/Contents/Eclipse/developer/toolchains/gnu_arm/10.3_2021.10/bin/../lib/gcc/arm-none-eabi/10.3.1/../../../../arm-none-eabi/lib/thumb/v8-m.main+fp/hard/libc_nano.a(lib_a-setvbuf.o) (_free_r)
/Applications/Simplicity Studio.app/Contents/Eclipse/developer/toolchains/gnu_arm/10.3_2021.10/bin/../lib/gcc/arm-none-eabi/10.3.1/../../../../arm-none-eabi/lib/thumb/v8-m.main+fp/hard/libc_nano.a(lib_a-nano-mallocr.o)
                              /Applications/Simplicity Studio.app/Contents/Eclipse/developer/toolchains/gnu_arm/10.3_2021.10/bin/../lib/gcc/arm-none-eabi/10.3.1/../../../../arm-none-eabi/lib/thumb/v8-m.main+fp/hard/libc_nano.a(lib_a-findfp.o) (_malloc_r)
/Applications/Simplicity Studio.app/Contents/Eclipse/developer/toolchains/gnu_arm/10.3_2021.10/bin/../lib/gcc/arm-none-eabi/10.3.1/../../../../arm-none-eabi/lib/thumb/v8-m.main+fp/hard/libc_nano.a(lib_a-nano-vfprintf.o)
                              /Applications/Simplicity Studio.app/Contents/Eclipse/developer/toolchains/gnu_arm/10.3_2021.10/bin/../lib/gcc/arm-none-eabi/10.3.1/../../../../arm-none-eabi/lib/thumb/v8-m.main+fp/hard/libc_nano.a(lib_a-printf.o) (_vfprintf_r)
/Applications/Simplicity Studio.app/Contents/Eclipse/developer/toolchains/gnu_arm/10.3_2021.10/bin/../lib/gcc/arm-none-eabi/10.3.1/../../../../arm-none-eabi/lib/thumb/v8-m.main+fp/hard/libc_nano.a(lib_a-nano-vfprintf_i.o)
                              /Applications/Simplicity Studio.app/Contents/Eclipse/developer/toolchains/gnu_arm/10.3_2021.10/bin/../lib/gcc/arm-none-eabi/10.3.1/../../../../arm-none-eabi/lib/thumb/v8-m.main+fp/hard/libc_nano.a(lib_a-nano-vfprintf.o) (_printf_i)
/Applications/Simplicity Studio.app/Contents/Eclipse/developer/toolchains/gnu_arm/10.3_2021.10/bin/../lib/gcc/arm-none-eabi/10.3.1/../../../../arm-none-eabi/lib/thumb/v8-m.main+fp/hard/libc_nano.a(lib_a-sbrkr.o)
                              /Applications/Simplicity Studio.app/Contents/Eclipse/developer/toolchains/gnu_arm/10.3_2021.10/bin/../lib/gcc/arm-none-eabi/10.3.1/../../../../arm-none-eabi/lib/thumb/v8-m.main+fp/hard/libc_nano.a(lib_a-nano-mallocr.o) (_sbrk_r)
/Applications/Simplicity Studio.app/Contents/Eclipse/developer/toolchains/gnu_arm/10.3_2021.10/bin/../lib/gcc/arm-none-eabi/10.3.1/../../../../arm-none-eabi/lib/thumb/v8-m.main+fp/hard/libc_nano.a(lib_a-stdio.o)
                              /Applications/Simplicity Studio.app/Contents/Eclipse/developer/toolchains/gnu_arm/10.3_2021.10/bin/../lib/gcc/arm-none-eabi/10.3.1/../../../../arm-none-eabi/lib/thumb/v8-m.main+fp/hard/libc_nano.a(lib_a-findfp.o) (__sread)
/Applications/Simplicity Studio.app/Contents/Eclipse/developer/toolchains/gnu_arm/10.3_2021.10/bin/../lib/gcc/arm-none-eabi/10.3.1/../../../../arm-none-eabi/lib/thumb/v8-m.main+fp/hard/libc_nano.a(lib_a-writer.o)
                              /Applications/Simplicity Studio.app/Contents/Eclipse/developer/toolchains/gnu_arm/10.3_2021.10/bin/../lib/gcc/arm-none-eabi/10.3.1/../../../../arm-none-eabi/lib/thumb/v8-m.main+fp/hard/libc_nano.a(lib_a-stdio.o) (_write_r)
/Applications/Simplicity Studio.app/Contents/Eclipse/developer/toolchains/gnu_arm/10.3_2021.10/bin/../lib/gcc/arm-none-eabi/10.3.1/../../../../arm-none-eabi/lib/thumb/v8-m.main+fp/hard/libc_nano.a(lib_a-closer.o)
                              /Applications/Simplicity Studio.app/Contents/Eclipse/developer/toolchains/gnu_arm/10.3_2021.10/bin/../lib/gcc/arm-none-eabi/10.3.1/../../../../arm-none-eabi/lib/thumb/v8-m.main+fp/hard/libc_nano.a(lib_a-stdio.o) (_close_r)
/Applications/Simplicity Studio.app/Contents/Eclipse/developer/toolchains/gnu_arm/10.3_2021.10/bin/../lib/gcc/arm-none-eabi/10.3.1/../../../../arm-none-eabi/lib/thumb/v8-m.main+fp/hard/libc_nano.a(lib_a-fstatr.o)
                              /Applications/Simplicity Studio.app/Contents/Eclipse/developer/toolchains/gnu_arm/10.3_2021.10/bin/../lib/gcc/arm-none-eabi/10.3.1/../../../../arm-none-eabi/lib/thumb/v8-m.main+fp/hard/libc_nano.a(lib_a-makebuf.o) (_fstat_r)
/Applications/Simplicity Studio.app/Contents/Eclipse/developer/toolchains/gnu_arm/10.3_2021.10/bin/../lib/gcc/arm-none-eabi/10.3.1/../../../../arm-none-eabi/lib/thumb/v8-m.main+fp/hard/libc_nano.a(lib_a-fvwrite.o)
                              /Applications/Simplicity Studio.app/Contents/Eclipse/developer/toolchains/gnu_arm/10.3_2021.10/bin/../lib/gcc/arm-none-eabi/10.3.1/../../../../arm-none-eabi/lib/thumb/v8-m.main+fp/hard/libc_nano.a(lib_a-nano-vfprintf.o) (__sfvwrite_r)
/Applications/Simplicity Studio.app/Contents/Eclipse/developer/toolchains/gnu_arm/10.3_2021.10/bin/../lib/gcc/arm-none-eabi/10.3.1/../../../../arm-none-eabi/lib/thumb/v8-m.main+fp/hard/libc_nano.a(lib_a-isattyr.o)
                              /Applications/Simplicity Studio.app/Contents/Eclipse/developer/toolchains/gnu_arm/10.3_2021.10/bin/../lib/gcc/arm-none-eabi/10.3.1/../../../../arm-none-eabi/lib/thumb/v8-m.main+fp/hard/libc_nano.a(lib_a-makebuf.o) (_isatty_r)
/Applications/Simplicity Studio.app/Contents/Eclipse/developer/toolchains/gnu_arm/10.3_2021.10/bin/../lib/gcc/arm-none-eabi/10.3.1/../../../../arm-none-eabi/lib/thumb/v8-m.main+fp/hard/libc_nano.a(lib_a-lseekr.o)
                              /Applications/Simplicity Studio.app/Contents/Eclipse/developer/toolchains/gnu_arm/10.3_2021.10/bin/../lib/gcc/arm-none-eabi/10.3.1/../../../../arm-none-eabi/lib/thumb/v8-m.main+fp/hard/libc_nano.a(lib_a-stdio.o) (_lseek_r)
/Applications/Simplicity Studio.app/Contents/Eclipse/developer/toolchains/gnu_arm/10.3_2021.10/bin/../lib/gcc/arm-none-eabi/10.3.1/../../../../arm-none-eabi/lib/thumb/v8-m.main+fp/hard/libc_nano.a(lib_a-memchr-stub.o)
                              /Applications/Simplicity Studio.app/Contents/Eclipse/developer/toolchains/gnu_arm/10.3_2021.10/bin/../lib/gcc/arm-none-eabi/10.3.1/../../../../arm-none-eabi/lib/thumb/v8-m.main+fp/hard/libc_nano.a(lib_a-nano-vfprintf.o) (memchr)
/Applications/Simplicity Studio.app/Contents/Eclipse/developer/toolchains/gnu_arm/10.3_2021.10/bin/../lib/gcc/arm-none-eabi/10.3.1/../../../../arm-none-eabi/lib/thumb/v8-m.main+fp/hard/libc_nano.a(lib_a-mlock.o)
                              /Applications/Simplicity Studio.app/Contents/Eclipse/developer/toolchains/gnu_arm/10.3_2021.10/bin/../lib/gcc/arm-none-eabi/10.3.1/../../../../arm-none-eabi/lib/thumb/v8-m.main+fp/hard/libc_nano.a(lib_a-nano-freer.o) (__malloc_lock)
/Applications/Simplicity Studio.app/Contents/Eclipse/developer/toolchains/gnu_arm/10.3_2021.10/bin/../lib/gcc/arm-none-eabi/10.3.1/../../../../arm-none-eabi/lib/thumb/v8-m.main+fp/hard/libc_nano.a(lib_a-nano-reallocr.o)
                              /Applications/Simplicity Studio.app/Contents/Eclipse/developer/toolchains/gnu_arm/10.3_2021.10/bin/../lib/gcc/arm-none-eabi/10.3.1/../../../../arm-none-eabi/lib/thumb/v8-m.main+fp/hard/libc_nano.a(lib_a-fvwrite.o) (_realloc_r)
/Applications/Simplicity Studio.app/Contents/Eclipse/developer/toolchains/gnu_arm/10.3_2021.10/bin/../lib/gcc/arm-none-eabi/10.3.1/../../../../arm-none-eabi/lib/thumb/v8-m.main+fp/hard/libc_nano.a(lib_a-readr.o)
                              /Applications/Simplicity Studio.app/Contents/Eclipse/developer/toolchains/gnu_arm/10.3_2021.10/bin/../lib/gcc/arm-none-eabi/10.3.1/../../../../arm-none-eabi/lib/thumb/v8-m.main+fp/hard/libc_nano.a(lib_a-stdio.o) (_read_r)
/Applications/Simplicity Studio.app/Contents/Eclipse/developer/toolchains/gnu_arm/10.3_2021.10/bin/../lib/gcc/arm-none-eabi/10.3.1/../../../../arm-none-eabi/lib/thumb/v8-m.main+fp/hard/libc_nano.a(lib_a-reent.o)
                              /Applications/Simplicity Studio.app/Contents/Eclipse/developer/toolchains/gnu_arm/10.3_2021.10/bin/../lib/gcc/arm-none-eabi/10.3.1/../../../../arm-none-eabi/lib/thumb/v8-m.main+fp/hard/libc_nano.a(lib_a-sbrkr.o) (errno)
/Applications/Simplicity Studio.app/Contents/Eclipse/developer/toolchains/gnu_arm/10.3_2021.10/bin/../lib/gcc/arm-none-eabi/10.3.1/../../../../arm-none-eabi/lib/thumb/v8-m.main+fp/hard/libc_nano.a(lib_a-nano-msizer.o)
                              /Applications/Simplicity Studio.app/Contents/Eclipse/developer/toolchains/gnu_arm/10.3_2021.10/bin/../lib/gcc/arm-none-eabi/10.3.1/../../../../arm-none-eabi/lib/thumb/v8-m.main+fp/hard/libc_nano.a(lib_a-nano-reallocr.o) (_malloc_usable_size_r)
gecko_sdk_4.3.1/platform/emdrv/nvm3/lib/libnvm3_CM33_gcc.a(nvm3.o)
                              vscode-build/obj/gecko_sdk_4.3.1/platform/emdrv/nvm3/src/nvm3_default_common_linker.o (nvm3_open)
gecko_sdk_4.3.1/platform/emdrv/nvm3/lib/libnvm3_CM33_gcc.a(nvm3_cache.o)
                              gecko_sdk_4.3.1/platform/emdrv/nvm3/lib/libnvm3_CM33_gcc.a(nvm3.o) (nvm3_cacheClear)
gecko_sdk_4.3.1/platform/emdrv/nvm3/lib/libnvm3_CM33_gcc.a(nvm3_object.o)
                              gecko_sdk_4.3.1/platform/emdrv/nvm3/lib/libnvm3_CM33_gcc.a(nvm3.o) (nvm3_objHdrInit)
gecko_sdk_4.3.1/platform/emdrv/nvm3/lib/libnvm3_CM33_gcc.a(nvm3_utils.o)
                              gecko_sdk_4.3.1/platform/emdrv/nvm3/lib/libnvm3_CM33_gcc.a(nvm3.o) (nvm3_utilsComputeBergerCode)
gecko_sdk_4.3.1/platform/emdrv/nvm3/lib/libnvm3_CM33_gcc.a(nvm3_page.o)
                              gecko_sdk_4.3.1/platform/emdrv/nvm3/lib/libnvm3_CM33_gcc.a(nvm3.o) (nvm3_pageSetBad)

Discarded input sections

 .text          0x0000000000000000        0x0 /Applications/Simplicity Studio.app/Contents/Eclipse/developer/toolchains/gnu_arm/10.3_2021.10/bin/../lib/gcc/arm-none-eabi/10.3.1/thumb/v8-m.main+fp/hard/crti.o
 .data          0x0000000000000000        0x0 /Applications/Simplicity Studio.app/Contents/Eclipse/developer/toolchains/gnu_arm/10.3_2021.10/bin/../lib/gcc/arm-none-eabi/10.3.1/thumb/v8-m.main+fp/hard/crti.o
 .bss           0x0000000000000000        0x0 /Applications/Simplicity Studio.app/Contents/Eclipse/developer/toolchains/gnu_arm/10.3_2021.10/bin/../lib/gcc/arm-none-eabi/10.3.1/thumb/v8-m.main+fp/hard/crti.o
 .data          0x0000000000000000        0x4 /Applications/Simplicity Studio.app/Contents/Eclipse/developer/toolchains/gnu_arm/10.3_2021.10/bin/../lib/gcc/arm-none-eabi/10.3.1/thumb/v8-m.main+fp/hard/crtbegin.o
 .rodata        0x0000000000000000       0x24 /Applications/Simplicity Studio.app/Contents/Eclipse/developer/toolchains/gnu_arm/10.3_2021.10/bin/../lib/gcc/arm-none-eabi/10.3.1/thumb/v8-m.main+fp/hard/crtbegin.o
 .data          0x0000000000000000        0x0 /Applications/Simplicity Studio.app/Contents/Eclipse/developer/toolchains/gnu_arm/10.3_2021.10/bin/../lib/gcc/arm-none-eabi/10.3.1/../../../../arm-none-eabi/lib/thumb/v8-m.main+fp/hard/crt0.o
 .bss           0x0000000000000000        0x0 /Applications/Simplicity Studio.app/Contents/Eclipse/developer/toolchains/gnu_arm/10.3_2021.10/bin/../lib/gcc/arm-none-eabi/10.3.1/../../../../arm-none-eabi/lib/thumb/v8-m.main+fp/hard/crt0.o
 .ARM.extab     0x0000000000000000        0x0 /Applications/Simplicity Studio.app/Contents/Eclipse/developer/toolchains/gnu_arm/10.3_2021.10/bin/../lib/gcc/arm-none-eabi/10.3.1/../../../../arm-none-eabi/lib/thumb/v8-m.main+fp/hard/crt0.o
 .data          0x0000000000000000        0x0 vscode-build/obj/gecko_sdk_4.3.1/platform/service/udelay/src/sl_udelay_armv6m_gcc.o
 .bss           0x0000000000000000        0x0 vscode-build/obj/gecko_sdk_4.3.1/platform/service/udelay/src/sl_udelay_armv6m_gcc.o
 .text          0x0000000000000000        0x0 vscode-build/obj/app.o
 .data          0x0000000000000000        0x0 vscode-build/obj/app.o
 .bss           0x0000000000000000        0x0 vscode-build/obj/app.o
 .text          0x0000000000000000        0x0 vscode-build/obj/autogen/sl_board_default_init.o
 .data          0x0000000000000000        0x0 vscode-build/obj/autogen/sl_board_default_init.o
 .bss           0x0000000000000000        0x0 vscode-build/obj/autogen/sl_board_default_init.o
 .text          0x0000000000000000        0x0 vscode-build/obj/autogen/sl_cli_command_table.o
 .data          0x0000000000000000        0x0 vscode-build/obj/autogen/sl_cli_command_table.o
 .bss           0x0000000000000000        0x0 vscode-build/obj/autogen/sl_cli_command_table.o
 .text          0x0000000000000000        0x0 vscode-build/obj/autogen/sl_cli_instances.o
 .data          0x0000000000000000        0x0 vscode-build/obj/autogen/sl_cli_instances.o
 .bss           0x0000000000000000        0x0 vscode-build/obj/autogen/sl_cli_instances.o
 .text.sl_cli_instances_is_ok_to_sleep
                0x0000000000000000        0xc vscode-build/obj/autogen/sl_cli_instances.o
 .rodata.sl_cli_handles
                0x0000000000000000        0x4 vscode-build/obj/autogen/sl_cli_instances.o
 .rodata.sl_cli_handles_count
                0x0000000000000000        0x4 vscode-build/obj/autogen/sl_cli_instances.o
 .text          0x0000000000000000        0x0 vscode-build/obj/autogen/sl_device_init_clocks.o
 .data          0x0000000000000000        0x0 vscode-build/obj/autogen/sl_device_init_clocks.o
 .bss           0x0000000000000000        0x0 vscode-build/obj/autogen/sl_device_init_clocks.o
 .text          0x0000000000000000        0x0 vscode-build/obj/autogen/sl_event_handler.o
 .data          0x0000000000000000        0x0 vscode-build/obj/autogen/sl_event_handler.o
 .bss           0x0000000000000000        0x0 vscode-build/obj/autogen/sl_event_handler.o
 .text.sl_iostream_init_instances
                0x0000000000000000        0x4 vscode-build/obj/autogen/sl_event_handler.o
 .text          0x0000000000000000        0x0 vscode-build/obj/autogen/sl_iostream_handles.o
 .data          0x0000000000000000        0x0 vscode-build/obj/autogen/sl_iostream_handles.o
 .bss           0x0000000000000000        0x0 vscode-build/obj/autogen/sl_iostream_handles.o
 .text.sl_iostream_get_handle
                0x0000000000000000       0x1c vscode-build/obj/autogen/sl_iostream_handles.o
 .data.sl_iostream_instances_info
                0x0000000000000000        0x4 vscode-build/obj/autogen/sl_iostream_handles.o
 .rodata.sl_iostream_instances_count
                0x0000000000000000        0x4 vscode-build/obj/autogen/sl_iostream_handles.o
 .debug_info    0x0000000000000000      0x2c0 vscode-build/obj/autogen/sl_iostream_handles.o
 .debug_abbrev  0x0000000000000000      0x17c vscode-build/obj/autogen/sl_iostream_handles.o
 .debug_loc     0x0000000000000000       0x56 vscode-build/obj/autogen/sl_iostream_handles.o
 .debug_aranges
                0x0000000000000000       0x20 vscode-build/obj/autogen/sl_iostream_handles.o
 .debug_ranges  0x0000000000000000       0x30 vscode-build/obj/autogen/sl_iostream_handles.o
 .debug_line    0x0000000000000000      0x389 vscode-build/obj/autogen/sl_iostream_handles.o
 .debug_str     0x0000000000000000      0x305 vscode-build/obj/autogen/sl_iostream_handles.o
 .comment       0x0000000000000000       0x4a vscode-build/obj/autogen/sl_iostream_handles.o
 .debug_frame   0x0000000000000000       0x28 vscode-build/obj/autogen/sl_iostream_handles.o
 .ARM.attributes
                0x0000000000000000       0x3a vscode-build/obj/autogen/sl_iostream_handles.o
 .text          0x0000000000000000        0x0 vscode-build/obj/autogen/sl_iostream_init_eusart_instances.o
 .data          0x0000000000000000        0x0 vscode-build/obj/autogen/sl_iostream_init_eusart_instances.o
 .bss           0x0000000000000000        0x0 vscode-build/obj/autogen/sl_iostream_init_eusart_instances.o
 .rodata.str1.1
                0x0000000000000000        0x5 vscode-build/obj/autogen/sl_iostream_init_eusart_instances.o
 .data.sl_iostream_instance_vcom_info
                0x0000000000000000       0x10 vscode-build/obj/autogen/sl_iostream_init_eusart_instances.o
 .data.sl_iostream_uart_vcom_handle
                0x0000000000000000        0x4 vscode-build/obj/autogen/sl_iostream_init_eusart_instances.o
 .data.sl_iostream_vcom_handle
                0x0000000000000000        0x4 vscode-build/obj/autogen/sl_iostream_init_eusart_instances.o
 .text          0x0000000000000000        0x0 vscode-build/obj/autogen/sli_cli_hooks.o
 .data          0x0000000000000000        0x0 vscode-build/obj/autogen/sli_cli_hooks.o
 .bss           0x0000000000000000        0x0 vscode-build/obj/autogen/sli_cli_hooks.o
 .debug_info    0x0000000000000000       0x72 vscode-build/obj/autogen/sli_cli_hooks.o
 .debug_abbrev  0x0000000000000000       0x26 vscode-build/obj/autogen/sli_cli_hooks.o
 .debug_aranges
                0x0000000000000000       0x18 vscode-build/obj/autogen/sli_cli_hooks.o
 .debug_line    0x0000000000000000       0x1d vscode-build/obj/autogen/sli_cli_hooks.o
 .debug_str     0x0000000000000000      0x1af vscode-build/obj/autogen/sli_cli_hooks.o
 .comment       0x0000000000000000       0x4a vscode-build/obj/autogen/sli_cli_hooks.o
 .ARM.attributes
                0x0000000000000000       0x3a vscode-build/obj/autogen/sli_cli_hooks.o
 .text          0x0000000000000000        0x0 vscode-build/obj/gecko_sdk_4.3.1/hardware/board/src/sl_board_control_gpio.o
 .data          0x0000000000000000        0x0 vscode-build/obj/gecko_sdk_4.3.1/hardware/board/src/sl_board_control_gpio.o
 .bss           0x0000000000000000        0x0 vscode-build/obj/gecko_sdk_4.3.1/hardware/board/src/sl_board_control_gpio.o
 .text.sl_board_enable_display
                0x0000000000000000       0x12 vscode-build/obj/gecko_sdk_4.3.1/hardware/board/src/sl_board_control_gpio.o
 .text.sl_board_disable_display
                0x0000000000000000       0x12 vscode-build/obj/gecko_sdk_4.3.1/hardware/board/src/sl_board_control_gpio.o
 .rodata.sl_board_enable_sensor.str1.1
                0x0000000000000000       0x3b vscode-build/obj/gecko_sdk_4.3.1/hardware/board/src/sl_board_control_gpio.o
 .text.sl_board_enable_sensor
                0x0000000000000000       0x60 vscode-build/obj/gecko_sdk_4.3.1/hardware/board/src/sl_board_control_gpio.o
 .text.sl_board_disable_sensor
                0x0000000000000000       0x6c vscode-build/obj/gecko_sdk_4.3.1/hardware/board/src/sl_board_control_gpio.o
 .text.sl_board_enable_memory
                0x0000000000000000       0x28 vscode-build/obj/gecko_sdk_4.3.1/hardware/board/src/sl_board_control_gpio.o
 .text.sl_board_disable_memory
                0x0000000000000000       0x28 vscode-build/obj/gecko_sdk_4.3.1/hardware/board/src/sl_board_control_gpio.o
 .text.sl_board_enable_oscillator
                0x0000000000000000       0x1c vscode-build/obj/gecko_sdk_4.3.1/hardware/board/src/sl_board_control_gpio.o
 .text.sl_board_disable_oscillator
                0x0000000000000000       0x1c vscode-build/obj/gecko_sdk_4.3.1/hardware/board/src/sl_board_control_gpio.o
 .text          0x0000000000000000        0x0 vscode-build/obj/gecko_sdk_4.3.1/hardware/board/src/sl_board_init.o
 .data          0x0000000000000000        0x0 vscode-build/obj/gecko_sdk_4.3.1/hardware/board/src/sl_board_init.o
 .bss           0x0000000000000000        0x0 vscode-build/obj/gecko_sdk_4.3.1/hardware/board/src/sl_board_init.o
 .text          0x0000000000000000        0x0 vscode-build/obj/gecko_sdk_4.3.1/hardware/driver/configuration_over_swo/src/sl_cos.o
 .data          0x0000000000000000        0x0 vscode-build/obj/gecko_sdk_4.3.1/hardware/driver/configuration_over_swo/src/sl_cos.o
 .bss           0x0000000000000000        0x0 vscode-build/obj/gecko_sdk_4.3.1/hardware/driver/configuration_over_swo/src/sl_cos.o
 .text.sl_cos_config_pti
                0x0000000000000000       0x26 vscode-build/obj/gecko_sdk_4.3.1/hardware/driver/configuration_over_swo/src/sl_cos.o
 .text          0x0000000000000000        0x0 vscode-build/obj/gecko_sdk_4.3.1/hardware/driver/mx25_flash_shutdown/src/sl_mx25_flash_shutdown_usart/sl_mx25_flash_shutdown.o
 .data          0x0000000000000000        0x0 vscode-build/obj/gecko_sdk_4.3.1/hardware/driver/mx25_flash_shutdown/src/sl_mx25_flash_shutdown_usart/sl_mx25_flash_shutdown.o
 .bss           0x0000000000000000        0x0 vscode-build/obj/gecko_sdk_4.3.1/hardware/driver/mx25_flash_shutdown/src/sl_mx25_flash_shutdown_usart/sl_mx25_flash_shutdown.o
 .text          0x0000000000000000        0x0 vscode-build/obj/gecko_sdk_4.3.1/platform/Device/SiliconLabs/EFR32ZG23/Source/startup_efr32zg23.o
 .data          0x0000000000000000        0x0 vscode-build/obj/gecko_sdk_4.3.1/platform/Device/SiliconLabs/EFR32ZG23/Source/startup_efr32zg23.o
 .bss           0x0000000000000000        0x0 vscode-build/obj/gecko_sdk_4.3.1/platform/Device/SiliconLabs/EFR32ZG23/Source/startup_efr32zg23.o
 .text          0x0000000000000000        0x0 vscode-build/obj/gecko_sdk_4.3.1/platform/Device/SiliconLabs/EFR32ZG23/Source/system_efr32zg23.o
 .data          0x0000000000000000        0x0 vscode-build/obj/gecko_sdk_4.3.1/platform/Device/SiliconLabs/EFR32ZG23/Source/system_efr32zg23.o
 .bss           0x0000000000000000        0x0 vscode-build/obj/gecko_sdk_4.3.1/platform/Device/SiliconLabs/EFR32ZG23/Source/system_efr32zg23.o
 .text.SystemHFRCODPLLClockSet
                0x0000000000000000        0xc vscode-build/obj/gecko_sdk_4.3.1/platform/Device/SiliconLabs/EFR32ZG23/Source/system_efr32zg23.o
 .text.SystemLFXOClockSet
                0x0000000000000000        0xc vscode-build/obj/gecko_sdk_4.3.1/platform/Device/SiliconLabs/EFR32ZG23/Source/system_efr32zg23.o
 .text          0x0000000000000000        0x0 vscode-build/obj/gecko_sdk_4.3.1/platform/common/src/sl_assert.o
 .data          0x0000000000000000        0x0 vscode-build/obj/gecko_sdk_4.3.1/platform/common/src/sl_assert.o
 .bss           0x0000000000000000        0x0 vscode-build/obj/gecko_sdk_4.3.1/platform/common/src/sl_assert.o
 .text          0x0000000000000000        0x0 vscode-build/obj/gecko_sdk_4.3.1/platform/common/src/sl_slist.o
 .data          0x0000000000000000        0x0 vscode-build/obj/gecko_sdk_4.3.1/platform/common/src/sl_slist.o
 .bss           0x0000000000000000        0x0 vscode-build/obj/gecko_sdk_4.3.1/platform/common/src/sl_slist.o
 .text.sl_slist_push_back
                0x0000000000000000       0x24 vscode-build/obj/gecko_sdk_4.3.1/platform/common/src/sl_slist.o
 .text.sl_slist_pop
                0x0000000000000000       0x20 vscode-build/obj/gecko_sdk_4.3.1/platform/common/src/sl_slist.o
 .text.sl_slist_insert
                0x0000000000000000       0x20 vscode-build/obj/gecko_sdk_4.3.1/platform/common/src/sl_slist.o
 .text.sl_slist_remove
                0x0000000000000000       0x28 vscode-build/obj/gecko_sdk_4.3.1/platform/common/src/sl_slist.o
 .text.sl_slist_sort
                0x0000000000000000       0x50 vscode-build/obj/gecko_sdk_4.3.1/platform/common/src/sl_slist.o
 .text          0x0000000000000000        0x0 vscode-build/obj/gecko_sdk_4.3.1/platform/common/src/sl_string.o
 .data          0x0000000000000000        0x0 vscode-build/obj/gecko_sdk_4.3.1/platform/common/src/sl_string.o
 .bss           0x0000000000000000        0x0 vscode-build/obj/gecko_sdk_4.3.1/platform/common/src/sl_string.o
 .text.sl_str_is_empty
                0x0000000000000000       0x10 vscode-build/obj/gecko_sdk_4.3.1/platform/common/src/sl_string.o
 .text.sl_memrchr
                0x0000000000000000       0x8c vscode-build/obj/gecko_sdk_4.3.1/platform/common/src/sl_string.o
 .text          0x0000000000000000        0x0 vscode-build/obj/gecko_sdk_4.3.1/platform/common/toolchain/src/sl_memory.o
 .data          0x0000000000000000        0x0 vscode-build/obj/gecko_sdk_4.3.1/platform/common/toolchain/src/sl_memory.o
 .bss           0x0000000000000000        0x0 vscode-build/obj/gecko_sdk_4.3.1/platform/common/toolchain/src/sl_memory.o
 .text.sl_memory_get_stack_region
                0x0000000000000000       0x10 vscode-build/obj/gecko_sdk_4.3.1/platform/common/toolchain/src/sl_memory.o
 .text.sl_memory_get_heap_region
                0x0000000000000000       0x14 vscode-build/obj/gecko_sdk_4.3.1/platform/common/toolchain/src/sl_memory.o
 .text          0x0000000000000000        0x0 vscode-build/obj/gecko_sdk_4.3.1/platform/driver/debug/src/sl_debug_swo.o
 .data          0x0000000000000000        0x0 vscode-build/obj/gecko_sdk_4.3.1/platform/driver/debug/src/sl_debug_swo.o
 .bss           0x0000000000000000        0x0 vscode-build/obj/gecko_sdk_4.3.1/platform/driver/debug/src/sl_debug_swo.o
 .text.sl_debug_swo_write_u16
                0x0000000000000000       0x44 vscode-build/obj/gecko_sdk_4.3.1/platform/driver/debug/src/sl_debug_swo.o
 .text.sl_debug_swo_write_u32
                0x0000000000000000       0x44 vscode-build/obj/gecko_sdk_4.3.1/platform/driver/debug/src/sl_debug_swo.o
 .text          0x0000000000000000        0x0 vscode-build/obj/gecko_sdk_4.3.1/platform/emdrv/dmadrv/src/dmadrv.o
 .data          0x0000000000000000        0x0 vscode-build/obj/gecko_sdk_4.3.1/platform/emdrv/dmadrv/src/dmadrv.o
 .bss           0x0000000000000000        0x0 vscode-build/obj/gecko_sdk_4.3.1/platform/emdrv/dmadrv/src/dmadrv.o
 .text.DMADRV_LdmaStartTransfer
                0x0000000000000000       0x4c vscode-build/obj/gecko_sdk_4.3.1/platform/emdrv/dmadrv/src/dmadrv.o
 .text.DMADRV_MemoryPeripheral
                0x0000000000000000       0x34 vscode-build/obj/gecko_sdk_4.3.1/platform/emdrv/dmadrv/src/dmadrv.o
 .text.DMADRV_MemoryPeripheralPingPong
                0x0000000000000000       0x34 vscode-build/obj/gecko_sdk_4.3.1/platform/emdrv/dmadrv/src/dmadrv.o
 .text.DMADRV_PeripheralMemoryPingPong
                0x0000000000000000       0x34 vscode-build/obj/gecko_sdk_4.3.1/platform/emdrv/dmadrv/src/dmadrv.o
 .text.DMADRV_TransferActive
                0x0000000000000000       0x50 vscode-build/obj/gecko_sdk_4.3.1/platform/emdrv/dmadrv/src/dmadrv.o
 .text.DMADRV_TransferRemainingCount
                0x0000000000000000       0x44 vscode-build/obj/gecko_sdk_4.3.1/platform/emdrv/dmadrv/src/dmadrv.o
 .rodata.m2p    0x0000000000000000       0x10 vscode-build/obj/gecko_sdk_4.3.1/platform/emdrv/dmadrv/src/dmadrv.o
 .rodata.p2m    0x0000000000000000       0x10 vscode-build/obj/gecko_sdk_4.3.1/platform/emdrv/dmadrv/src/dmadrv.o
 .rodata.xferCfg
                0x0000000000000000       0x10 vscode-build/obj/gecko_sdk_4.3.1/platform/emdrv/dmadrv/src/dmadrv.o
 .text          0x0000000000000000        0x0 vscode-build/obj/gecko_sdk_4.3.1/platform/emdrv/nvm3/src/nvm3_default_common_linker.o
 .data          0x0000000000000000        0x0 vscode-build/obj/gecko_sdk_4.3.1/platform/emdrv/nvm3/src/nvm3_default_common_linker.o
 .bss           0x0000000000000000        0x0 vscode-build/obj/gecko_sdk_4.3.1/platform/emdrv/nvm3/src/nvm3_default_common_linker.o
 .text.nvm3_deinitDefault
                0x0000000000000000        0xc vscode-build/obj/gecko_sdk_4.3.1/platform/emdrv/nvm3/src/nvm3_default_common_linker.o
 .text          0x0000000000000000        0x0 vscode-build/obj/gecko_sdk_4.3.1/platform/emdrv/nvm3/src/nvm3_hal_flash.o
 .data          0x0000000000000000        0x0 vscode-build/obj/gecko_sdk_4.3.1/platform/emdrv/nvm3/src/nvm3_hal_flash.o
 .bss           0x0000000000000000        0x0 vscode-build/obj/gecko_sdk_4.3.1/platform/emdrv/nvm3/src/nvm3_hal_flash.o
 .text          0x0000000000000000        0x0 vscode-build/obj/gecko_sdk_4.3.1/platform/emdrv/nvm3/src/nvm3_lock.o
 .data          0x0000000000000000        0x0 vscode-build/obj/gecko_sdk_4.3.1/platform/emdrv/nvm3/src/nvm3_lock.o
 .bss           0x0000000000000000        0x0 vscode-build/obj/gecko_sdk_4.3.1/platform/emdrv/nvm3/src/nvm3_lock.o
 .text          0x0000000000000000        0x0 vscode-build/obj/gecko_sdk_4.3.1/platform/emlib/src/em_cmu.o
 .data          0x0000000000000000        0x0 vscode-build/obj/gecko_sdk_4.3.1/platform/emlib/src/em_cmu.o
 .bss           0x0000000000000000        0x0 vscode-build/obj/gecko_sdk_4.3.1/platform/emlib/src/em_cmu.o
 .text.HFRCODPLLDevinfoGet
                0x0000000000000000      0x10c vscode-build/obj/gecko_sdk_4.3.1/platform/emlib/src/em_cmu.o
 .text.CMU_CalibrateConfig
                0x0000000000000000       0xe8 vscode-build/obj/gecko_sdk_4.3.1/platform/emlib/src/em_cmu.o
 .text.CMU_CalibrateCountGet
                0x0000000000000000       0x1c vscode-build/obj/gecko_sdk_4.3.1/platform/emlib/src/em_cmu.o
 .text.CMU_Calibrate
                0x0000000000000000       0x3c vscode-build/obj/gecko_sdk_4.3.1/platform/emlib/src/em_cmu.o
 .text.CMU_ClkOutPinConfig
                0x0000000000000000      0x120 vscode-build/obj/gecko_sdk_4.3.1/platform/emlib/src/em_cmu.o
 .text.sli_em_cmu_SYSTICEXTCLKENSet
                0x0000000000000000       0x30 vscode-build/obj/gecko_sdk_4.3.1/platform/emlib/src/em_cmu.o
 .text.sli_em_cmu_SYSTICEXTCLKENClear
                0x0000000000000000       0x30 vscode-build/obj/gecko_sdk_4.3.1/platform/emlib/src/em_cmu.o
 .text.CMU_LF_ClockPrecisionGet
                0x0000000000000000       0x18 vscode-build/obj/gecko_sdk_4.3.1/platform/emlib/src/em_cmu.o
 .text.CMU_HF_ClockPrecisionGet
                0x0000000000000000       0x18 vscode-build/obj/gecko_sdk_4.3.1/platform/emlib/src/em_cmu.o
 .text.CMU_HFRCODPLLBandGet
                0x0000000000000000        0x4 vscode-build/obj/gecko_sdk_4.3.1/platform/emlib/src/em_cmu.o
 .text.CMU_HFXOStartCrystalSharingLeader
                0x0000000000000000       0xa0 vscode-build/obj/gecko_sdk_4.3.1/platform/emlib/src/em_cmu.o
 .text.CMU_HFXOCrystalSharingFollowerInit
                0x0000000000000000       0xf8 vscode-build/obj/gecko_sdk_4.3.1/platform/emlib/src/em_cmu.o
 .text.CMU_HFXOCTuneSet
                0x0000000000000000       0x90 vscode-build/obj/gecko_sdk_4.3.1/platform/emlib/src/em_cmu.o
 .text.CMU_HFXOCTuneGet
                0x0000000000000000       0x54 vscode-build/obj/gecko_sdk_4.3.1/platform/emlib/src/em_cmu.o
 .text.CMU_HFXOCTuneDeltaSet
                0x0000000000000000        0xc vscode-build/obj/gecko_sdk_4.3.1/platform/emlib/src/em_cmu.o
 .text.CMU_HFXOCoreBiasCurrentCalibrate
                0x0000000000000000       0x78 vscode-build/obj/gecko_sdk_4.3.1/platform/emlib/src/em_cmu.o
 .text.CMU_LFXOPrecisionGet
                0x0000000000000000        0xc vscode-build/obj/gecko_sdk_4.3.1/platform/emlib/src/em_cmu.o
 .text.CMU_HFXOPrecisionGet
                0x0000000000000000        0xc vscode-build/obj/gecko_sdk_4.3.1/platform/emlib/src/em_cmu.o
 .text.CMU_OscillatorTuningGet
                0x0000000000000000       0x74 vscode-build/obj/gecko_sdk_4.3.1/platform/emlib/src/em_cmu.o
 .text.CMU_OscillatorTuningSet
                0x0000000000000000      0x15c vscode-build/obj/gecko_sdk_4.3.1/platform/emlib/src/em_cmu.o
 .text.CMU_ClockSelectSet
                0x0000000000000000      0x608 vscode-build/obj/gecko_sdk_4.3.1/platform/emlib/src/em_cmu.o
 .text.CMU_HFRCODPLLBandSet
                0x0000000000000000      0x118 vscode-build/obj/gecko_sdk_4.3.1/platform/emlib/src/em_cmu.o
 .text.CMU_DPLLLock
                0x0000000000000000      0x280 vscode-build/obj/gecko_sdk_4.3.1/platform/emlib/src/em_cmu.o
 .text.CMU_PCNTClockExternalSet
                0x0000000000000000       0x14 vscode-build/obj/gecko_sdk_4.3.1/platform/emlib/src/em_cmu.o
 .text.CMU_HFRCOEM23BandGet
                0x0000000000000000        0x4 vscode-build/obj/gecko_sdk_4.3.1/platform/emlib/src/em_cmu.o
 .text.CMU_HFRCOEM23BandSet
                0x0000000000000000       0xfc vscode-build/obj/gecko_sdk_4.3.1/platform/emlib/src/em_cmu.o
 .rodata.CSWTCH.96
                0x0000000000000000        0x7 vscode-build/obj/gecko_sdk_4.3.1/platform/emlib/src/em_cmu.o
 .rodata.CSWTCH.97
                0x0000000000000000        0x6 vscode-build/obj/gecko_sdk_4.3.1/platform/emlib/src/em_cmu.o
 .rodata.CSWTCH.98
                0x0000000000000000        0x3 vscode-build/obj/gecko_sdk_4.3.1/platform/emlib/src/em_cmu.o
 .rodata.hfrcoCalTable
                0x0000000000000000      0x190 vscode-build/obj/gecko_sdk_4.3.1/platform/emlib/src/em_cmu.o
 .text          0x0000000000000000        0x0 vscode-build/obj/gecko_sdk_4.3.1/platform/emlib/src/em_core.o
 .data          0x0000000000000000        0x0 vscode-build/obj/gecko_sdk_4.3.1/platform/emlib/src/em_core.o
 .bss           0x0000000000000000        0x0 vscode-build/obj/gecko_sdk_4.3.1/platform/emlib/src/em_core.o
 .text.__NVIC_GetPriority
                0x0000000000000000       0x24 vscode-build/obj/gecko_sdk_4.3.1/platform/emlib/src/em_core.o
 .text.CORE_CriticalDisableIrq
                0x0000000000000000        0x4 vscode-build/obj/gecko_sdk_4.3.1/platform/emlib/src/em_core.o
 .text.CORE_CriticalEnableIrq
                0x0000000000000000        0x4 vscode-build/obj/gecko_sdk_4.3.1/platform/emlib/src/em_core.o
 .text.CORE_YieldCritical
                0x0000000000000000       0x12 vscode-build/obj/gecko_sdk_4.3.1/platform/emlib/src/em_core.o
 .text.CORE_AtomicDisableIrq
                0x0000000000000000        0x8 vscode-build/obj/gecko_sdk_4.3.1/platform/emlib/src/em_core.o
 .text.CORE_AtomicEnableIrq
                0x0000000000000000        0x8 vscode-build/obj/gecko_sdk_4.3.1/platform/emlib/src/em_core.o
 .text.CORE_YieldAtomic
                0x0000000000000000       0x18 vscode-build/obj/gecko_sdk_4.3.1/platform/emlib/src/em_core.o
 .text.CORE_EnterNvicMask
                0x0000000000000000       0x2c vscode-build/obj/gecko_sdk_4.3.1/platform/emlib/src/em_core.o
 .text.CORE_NvicDisableMask
                0x0000000000000000       0x20 vscode-build/obj/gecko_sdk_4.3.1/platform/emlib/src/em_core.o
 .text.CORE_NvicEnableMask
                0x0000000000000000       0x20 vscode-build/obj/gecko_sdk_4.3.1/platform/emlib/src/em_core.o
 .text.CORE_YieldNvicMask
                0x0000000000000000       0x48 vscode-build/obj/gecko_sdk_4.3.1/platform/emlib/src/em_core.o
 .rodata.CORE_NvicMaskSetIRQ.str1.1
                0x0000000000000000       0x2d vscode-build/obj/gecko_sdk_4.3.1/platform/emlib/src/em_core.o
 .text.CORE_NvicMaskSetIRQ
                0x0000000000000000       0x34 vscode-build/obj/gecko_sdk_4.3.1/platform/emlib/src/em_core.o
 .text.CORE_NvicMaskClearIRQ
                0x0000000000000000       0x34 vscode-build/obj/gecko_sdk_4.3.1/platform/emlib/src/em_core.o
 .text.CORE_InIrqContext
                0x0000000000000000       0x14 vscode-build/obj/gecko_sdk_4.3.1/platform/emlib/src/em_core.o
 .text.CORE_IrqIsDisabled
                0x0000000000000000       0x1a vscode-build/obj/gecko_sdk_4.3.1/platform/emlib/src/em_core.o
 .text.CORE_GetNvicEnabledMask
                0x0000000000000000       0x20 vscode-build/obj/gecko_sdk_4.3.1/platform/emlib/src/em_core.o
 .text.CORE_GetNvicMaskDisableState
                0x0000000000000000       0x38 vscode-build/obj/gecko_sdk_4.3.1/platform/emlib/src/em_core.o
 .text.CORE_NvicIRQDisabled
                0x0000000000000000       0x34 vscode-build/obj/gecko_sdk_4.3.1/platform/emlib/src/em_core.o
 .text.CORE_IrqIsBlocked
                0x0000000000000000       0x6c vscode-build/obj/gecko_sdk_4.3.1/platform/emlib/src/em_core.o
 .text.CORE_GetNvicRamTableHandler
                0x0000000000000000       0x2c vscode-build/obj/gecko_sdk_4.3.1/platform/emlib/src/em_core.o
 .text.CORE_SetNvicRamTableHandler
                0x0000000000000000       0x30 vscode-build/obj/gecko_sdk_4.3.1/platform/emlib/src/em_core.o
 .text.CORE_InitNvicVectorTable
                0x0000000000000000       0xa0 vscode-build/obj/gecko_sdk_4.3.1/platform/emlib/src/em_core.o
 .text          0x0000000000000000        0x0 vscode-build/obj/gecko_sdk_4.3.1/platform/emlib/src/em_emu.o
 .data          0x0000000000000000        0x0 vscode-build/obj/gecko_sdk_4.3.1/platform/emlib/src/em_emu.o
 .bss           0x0000000000000000        0x0 vscode-build/obj/gecko_sdk_4.3.1/platform/emlib/src/em_emu.o
 .text.EMU_EM23Init
                0x0000000000000000       0x18 vscode-build/obj/gecko_sdk_4.3.1/platform/emlib/src/em_emu.o
 .text.EMU_EM23PresleepHook
                0x0000000000000000        0x2 vscode-build/obj/gecko_sdk_4.3.1/platform/emlib/src/em_emu.o
 .text.EMU_EFPEM23PresleepHook
                0x0000000000000000        0x2 vscode-build/obj/gecko_sdk_4.3.1/platform/emlib/src/em_emu.o
 .text.EMU_EM23PostsleepHook
                0x0000000000000000        0x2 vscode-build/obj/gecko_sdk_4.3.1/platform/emlib/src/em_emu.o
 .text.EMU_EFPEM23PostsleepHook
                0x0000000000000000        0x2 vscode-build/obj/gecko_sdk_4.3.1/platform/emlib/src/em_emu.o
 .text.EMU_EnterEM2
                0x0000000000000000       0x30 vscode-build/obj/gecko_sdk_4.3.1/platform/emlib/src/em_emu.o
 .text.EMU_EnterEM3
                0x0000000000000000       0x28 vscode-build/obj/gecko_sdk_4.3.1/platform/emlib/src/em_emu.o
 .text.EMU_Save
                0x0000000000000000        0x2 vscode-build/obj/gecko_sdk_4.3.1/platform/emlib/src/em_emu.o
 .text.EMU_Restore
                0x0000000000000000        0x2 vscode-build/obj/gecko_sdk_4.3.1/platform/emlib/src/em_emu.o
 .text.EMU_EM4PresleepHook
                0x0000000000000000        0x2 vscode-build/obj/gecko_sdk_4.3.1/platform/emlib/src/em_emu.o
 .text.EMU_EFPEM4PresleepHook
                0x0000000000000000        0x2 vscode-build/obj/gecko_sdk_4.3.1/platform/emlib/src/em_emu.o
 .text.EMU_MemPwrDown
                0x0000000000000000        0x2 vscode-build/obj/gecko_sdk_4.3.1/platform/emlib/src/em_emu.o
 .text.EMU_RamPowerDown
                0x0000000000000000       0x64 vscode-build/obj/gecko_sdk_4.3.1/platform/emlib/src/em_emu.o
 .text.EMU_RamPowerUp
                0x0000000000000000       0x18 vscode-build/obj/gecko_sdk_4.3.1/platform/emlib/src/em_emu.o
 .text.EMU_UpdateOscConfig
                0x0000000000000000        0x2 vscode-build/obj/gecko_sdk_4.3.1/platform/emlib/src/em_emu.o
 .text.EMU_EM01Init
                0x0000000000000000       0x14 vscode-build/obj/gecko_sdk_4.3.1/platform/emlib/src/em_emu.o
 .text.EMU_EnterEM4
                0x0000000000000000       0x84 vscode-build/obj/gecko_sdk_4.3.1/platform/emlib/src/em_emu.o
 .text.EMU_EnterEM4Wait
                0x0000000000000000       0x14 vscode-build/obj/gecko_sdk_4.3.1/platform/emlib/src/em_emu.o
 .text.EMU_EnterEM4H
                0x0000000000000000        0x4 vscode-build/obj/gecko_sdk_4.3.1/platform/emlib/src/em_emu.o
 .text.EMU_EnterEM4S
                0x0000000000000000        0x4 vscode-build/obj/gecko_sdk_4.3.1/platform/emlib/src/em_emu.o
 .text.EMU_DCDCPowerOff
                0x0000000000000000        0xc vscode-build/obj/gecko_sdk_4.3.1/platform/emlib/src/em_emu.o
 .text.EMU_EM01PeakCurrentSet
                0x0000000000000000       0x60 vscode-build/obj/gecko_sdk_4.3.1/platform/emlib/src/em_emu.o
 .text.EMU_DCDCSetPFMXTimeoutMaxCtrl
                0x0000000000000000       0x58 vscode-build/obj/gecko_sdk_4.3.1/platform/emlib/src/em_emu.o
 .text.EMU_TemperatureGet
                0x0000000000000000       0x24 vscode-build/obj/gecko_sdk_4.3.1/platform/emlib/src/em_emu.o
 .text.EMU_EFPDirectModeEnable
                0x0000000000000000       0x18 vscode-build/obj/gecko_sdk_4.3.1/platform/emlib/src/em_emu.o
 .text.EMU_EFPDriveDecoupleSet
                0x0000000000000000       0x18 vscode-build/obj/gecko_sdk_4.3.1/platform/emlib/src/em_emu.o
 .text.EMU_EFPDriveDvddSet
                0x0000000000000000       0x18 vscode-build/obj/gecko_sdk_4.3.1/platform/emlib/src/em_emu.o
 .text          0x0000000000000000        0x0 vscode-build/obj/gecko_sdk_4.3.1/platform/emlib/src/em_eusart.o
 .data          0x0000000000000000        0x0 vscode-build/obj/gecko_sdk_4.3.1/platform/emlib/src/em_eusart.o
 .bss           0x0000000000000000        0x0 vscode-build/obj/gecko_sdk_4.3.1/platform/emlib/src/em_eusart.o
 .text.EUSART_Rx
                0x0000000000000000       0x28 vscode-build/obj/gecko_sdk_4.3.1/platform/emlib/src/em_eusart.o
 .text.EUSART_RxExt
                0x0000000000000000        0xc vscode-build/obj/gecko_sdk_4.3.1/platform/emlib/src/em_eusart.o
 .text.EUSART_TxExt
                0x0000000000000000        0xa vscode-build/obj/gecko_sdk_4.3.1/platform/emlib/src/em_eusart.o
 .text.EUSART_Spi_TxRx
                0x0000000000000000       0x14 vscode-build/obj/gecko_sdk_4.3.1/platform/emlib/src/em_eusart.o
 .text.EUSART_SpiInit
                0x0000000000000000      0x228 vscode-build/obj/gecko_sdk_4.3.1/platform/emlib/src/em_eusart.o
 .text.EUSART_IrDAInit
                0x0000000000000000       0xc0 vscode-build/obj/gecko_sdk_4.3.1/platform/emlib/src/em_eusart.o
 .text.EUSART_BaudrateGet
                0x0000000000000000       0xf0 vscode-build/obj/gecko_sdk_4.3.1/platform/emlib/src/em_eusart.o
 .text.EUSART_RxBlock
                0x0000000000000000       0x60 vscode-build/obj/gecko_sdk_4.3.1/platform/emlib/src/em_eusart.o
 .text.EUSART_TxTristateSet
                0x0000000000000000       0x5c vscode-build/obj/gecko_sdk_4.3.1/platform/emlib/src/em_eusart.o
 .text.EUSART_PrsTriggerEnable
                0x0000000000000000       0xa8 vscode-build/obj/gecko_sdk_4.3.1/platform/emlib/src/em_eusart.o
 .text          0x0000000000000000        0x0 vscode-build/obj/gecko_sdk_4.3.1/platform/emlib/src/em_gpio.o
 .data          0x0000000000000000        0x0 vscode-build/obj/gecko_sdk_4.3.1/platform/emlib/src/em_gpio.o
 .bss           0x0000000000000000        0x0 vscode-build/obj/gecko_sdk_4.3.1/platform/emlib/src/em_gpio.o
 .rodata.BUS_RegBitWrite.str1.1
                0x0000000000000000       0x2c vscode-build/obj/gecko_sdk_4.3.1/platform/emlib/src/em_gpio.o
 .text.BUS_RegBitWrite
                0x0000000000000000       0x30 vscode-build/obj/gecko_sdk_4.3.1/platform/emlib/src/em_gpio.o
 .text.GPIO_ExtIntConfig
                0x0000000000000000       0xf8 vscode-build/obj/gecko_sdk_4.3.1/platform/emlib/src/em_gpio.o
 .text.GPIO_PinModeGet
                0x0000000000000000       0x64 vscode-build/obj/gecko_sdk_4.3.1/platform/emlib/src/em_gpio.o
 .text.GPIO_EM4EnablePinWakeup
                0x0000000000000000       0x7c vscode-build/obj/gecko_sdk_4.3.1/platform/emlib/src/em_gpio.o
 .text.GPIO_EM4WUExtIntConfig
                0x0000000000000000       0x74 vscode-build/obj/gecko_sdk_4.3.1/platform/emlib/src/em_gpio.o
 .text          0x0000000000000000        0x0 vscode-build/obj/gecko_sdk_4.3.1/platform/emlib/src/em_ldma.o
 .data          0x0000000000000000        0x0 vscode-build/obj/gecko_sdk_4.3.1/platform/emlib/src/em_ldma.o
 .bss           0x0000000000000000        0x0 vscode-build/obj/gecko_sdk_4.3.1/platform/emlib/src/em_ldma.o
 .text.LDMA_TransferRemainingCount
                0x0000000000000000       0x50 vscode-build/obj/gecko_sdk_4.3.1/platform/emlib/src/em_ldma.o
 .text          0x0000000000000000        0x0 vscode-build/obj/gecko_sdk_4.3.1/platform/emlib/src/em_msc.o
 .data          0x0000000000000000        0x0 vscode-build/obj/gecko_sdk_4.3.1/platform/emlib/src/em_msc.o
 .bss           0x0000000000000000        0x0 vscode-build/obj/gecko_sdk_4.3.1/platform/emlib/src/em_msc.o
 .text.MSC_ExecConfigSet
                0x0000000000000000       0x18 vscode-build/obj/gecko_sdk_4.3.1/platform/emlib/src/em_msc.o
 .text.MSC_WriteWordDma
                0x0000000000000000       0xf0 vscode-build/obj/gecko_sdk_4.3.1/platform/emlib/src/em_msc.o
 .text.MSC_EccConfigSet
                0x0000000000000000       0x7c vscode-build/obj/gecko_sdk_4.3.1/platform/emlib/src/em_msc.o
 .text.MSC_DmemPortMapSet
                0x0000000000000000       0x80 vscode-build/obj/gecko_sdk_4.3.1/platform/emlib/src/em_msc.o
 .text.MSC_PortSetPriority
                0x0000000000000000       0x38 vscode-build/obj/gecko_sdk_4.3.1/platform/emlib/src/em_msc.o
 .text.MSC_PortGetCurrentPriority
                0x0000000000000000       0x10 vscode-build/obj/gecko_sdk_4.3.1/platform/emlib/src/em_msc.o
 .text          0x0000000000000000        0x0 vscode-build/obj/gecko_sdk_4.3.1/platform/emlib/src/em_system.o
 .data          0x0000000000000000        0x0 vscode-build/obj/gecko_sdk_4.3.1/platform/emlib/src/em_system.o
 .bss           0x0000000000000000        0x0 vscode-build/obj/gecko_sdk_4.3.1/platform/emlib/src/em_system.o
 .text.SYSTEM_GetCalibrationValue
                0x0000000000000000       0x30 vscode-build/obj/gecko_sdk_4.3.1/platform/emlib/src/em_system.o
 .text.SYSTEM_GetSecurityCapability
                0x0000000000000000       0x28 vscode-build/obj/gecko_sdk_4.3.1/platform/emlib/src/em_system.o
 .text.SYSTEM_GetUnique
                0x0000000000000000        0xc vscode-build/obj/gecko_sdk_4.3.1/platform/emlib/src/em_system.o
 .text.SYSTEM_GetProdRev
                0x0000000000000000       0x10 vscode-build/obj/gecko_sdk_4.3.1/platform/emlib/src/em_system.o
 .text.SYSTEM_GetSRAMBaseAddress
                0x0000000000000000        0x6 vscode-build/obj/gecko_sdk_4.3.1/platform/emlib/src/em_system.o
 .text.SYSTEM_GetSRAMSize
                0x0000000000000000       0x10 vscode-build/obj/gecko_sdk_4.3.1/platform/emlib/src/em_system.o
 .text.SYSTEM_GetFlashSize
                0x0000000000000000        0xc vscode-build/obj/gecko_sdk_4.3.1/platform/emlib/src/em_system.o
 .text.SYSTEM_GetPartNumber
                0x0000000000000000        0xc vscode-build/obj/gecko_sdk_4.3.1/platform/emlib/src/em_system.o
 .text.SYSTEM_GetCalibrationTemperature
                0x0000000000000000        0xc vscode-build/obj/gecko_sdk_4.3.1/platform/emlib/src/em_system.o
 .text.SYSTEM_GetFamily
                0x0000000000000000       0x18 vscode-build/obj/gecko_sdk_4.3.1/platform/emlib/src/em_system.o
 .rodata.CSWTCH.11
                0x0000000000000000        0x3 vscode-build/obj/gecko_sdk_4.3.1/platform/emlib/src/em_system.o
 .text          0x0000000000000000        0x0 vscode-build/obj/gecko_sdk_4.3.1/platform/emlib/src/em_usart.o
 .data          0x0000000000000000        0x0 vscode-build/obj/gecko_sdk_4.3.1/platform/emlib/src/em_usart.o
 .bss           0x0000000000000000        0x0 vscode-build/obj/gecko_sdk_4.3.1/platform/emlib/src/em_usart.o
 .text.USART_BaudrateAsyncSet
                0x0000000000000000       0xe0 vscode-build/obj/gecko_sdk_4.3.1/platform/emlib/src/em_usart.o
 .text.USART_BaudrateCalc
                0x0000000000000000       0x7c vscode-build/obj/gecko_sdk_4.3.1/platform/emlib/src/em_usart.o
 .text.USART_BaudrateGet
                0x0000000000000000       0x22 vscode-build/obj/gecko_sdk_4.3.1/platform/emlib/src/em_usart.o
 .text.USART_Enable
                0x0000000000000000       0x3c vscode-build/obj/gecko_sdk_4.3.1/platform/emlib/src/em_usart.o
 .text.USART_InitPrsTrigger
                0x0000000000000000       0x38 vscode-build/obj/gecko_sdk_4.3.1/platform/emlib/src/em_usart.o
 .text.USART_InitAsync
                0x0000000000000000       0xd4 vscode-build/obj/gecko_sdk_4.3.1/platform/emlib/src/em_usart.o
 .text.USARTn_InitIrDA
                0x0000000000000000       0x54 vscode-build/obj/gecko_sdk_4.3.1/platform/emlib/src/em_usart.o
 .text.USART_InitI2s
                0x0000000000000000       0x70 vscode-build/obj/gecko_sdk_4.3.1/platform/emlib/src/em_usart.o
 .text.USART_Rx
                0x0000000000000000        0xc vscode-build/obj/gecko_sdk_4.3.1/platform/emlib/src/em_usart.o
 .text.USART_RxDouble
                0x0000000000000000        0xc vscode-build/obj/gecko_sdk_4.3.1/platform/emlib/src/em_usart.o
 .text.USART_RxDoubleExt
                0x0000000000000000        0xa vscode-build/obj/gecko_sdk_4.3.1/platform/emlib/src/em_usart.o
 .text.USART_RxExt
                0x0000000000000000        0xc vscode-build/obj/gecko_sdk_4.3.1/platform/emlib/src/em_usart.o
 .text.USART_Tx
                0x0000000000000000        0xa vscode-build/obj/gecko_sdk_4.3.1/platform/emlib/src/em_usart.o
 .text.USART_TxDouble
                0x0000000000000000        0xa vscode-build/obj/gecko_sdk_4.3.1/platform/emlib/src/em_usart.o
 .text.USART_TxDoubleExt
                0x0000000000000000        0xa vscode-build/obj/gecko_sdk_4.3.1/platform/emlib/src/em_usart.o
 .text.USART_TxExt
                0x0000000000000000        0xa vscode-build/obj/gecko_sdk_4.3.1/platform/emlib/src/em_usart.o
 .text          0x0000000000000000        0x0 vscode-build/obj/gecko_sdk_4.3.1/platform/service/cli/src/sl_cli.o
 .data          0x0000000000000000        0x0 vscode-build/obj/gecko_sdk_4.3.1/platform/service/cli/src/sl_cli.o
 .bss           0x0000000000000000        0x0 vscode-build/obj/gecko_sdk_4.3.1/platform/service/cli/src/sl_cli.o
 .text.sl_cli_get_argument_hex
                0x0000000000000000       0x18 vscode-build/obj/gecko_sdk_4.3.1/platform/service/cli/src/sl_cli.o
 .text.sl_cli_redirect_command
                0x0000000000000000       0x30 vscode-build/obj/gecko_sdk_4.3.1/platform/service/cli/src/sl_cli.o
 .text.sl_cli_is_ok_to_sleep
                0x0000000000000000       0x26 vscode-build/obj/gecko_sdk_4.3.1/platform/service/cli/src/sl_cli.o
 .text          0x0000000000000000        0x0 vscode-build/obj/gecko_sdk_4.3.1/platform/service/cli/src/sl_cli_arguments.o
 .data          0x0000000000000000        0x0 vscode-build/obj/gecko_sdk_4.3.1/platform/service/cli/src/sl_cli_arguments.o
 .bss           0x0000000000000000        0x0 vscode-build/obj/gecko_sdk_4.3.1/platform/service/cli/src/sl_cli_arguments.o
 .text          0x0000000000000000        0x0 vscode-build/obj/gecko_sdk_4.3.1/platform/service/cli/src/sl_cli_command.o
 .data          0x0000000000000000        0x0 vscode-build/obj/gecko_sdk_4.3.1/platform/service/cli/src/sl_cli_command.o
 .bss           0x0000000000000000        0x0 vscode-build/obj/gecko_sdk_4.3.1/platform/service/cli/src/sl_cli_command.o
 .text.sl_cli_command_remove_command_group
                0x0000000000000000       0x20 vscode-build/obj/gecko_sdk_4.3.1/platform/service/cli/src/sl_cli_command.o
 .text          0x0000000000000000        0x0 vscode-build/obj/gecko_sdk_4.3.1/platform/service/cli/src/sl_cli_input.o
 .data          0x0000000000000000        0x0 vscode-build/obj/gecko_sdk_4.3.1/platform/service/cli/src/sl_cli_input.o
 .bss           0x0000000000000000        0x0 vscode-build/obj/gecko_sdk_4.3.1/platform/service/cli/src/sl_cli_input.o
 .text          0x0000000000000000        0x0 vscode-build/obj/gecko_sdk_4.3.1/platform/service/cli/src/sl_cli_io.o
 .data          0x0000000000000000        0x0 vscode-build/obj/gecko_sdk_4.3.1/platform/service/cli/src/sl_cli_io.o
 .bss           0x0000000000000000        0x0 vscode-build/obj/gecko_sdk_4.3.1/platform/service/cli/src/sl_cli_io.o
 .text          0x0000000000000000        0x0 vscode-build/obj/gecko_sdk_4.3.1/platform/service/cli/src/sl_cli_tokenize.o
 .data          0x0000000000000000        0x0 vscode-build/obj/gecko_sdk_4.3.1/platform/service/cli/src/sl_cli_tokenize.o
 .bss           0x0000000000000000        0x0 vscode-build/obj/gecko_sdk_4.3.1/platform/service/cli/src/sl_cli_tokenize.o
 .text          0x0000000000000000        0x0 vscode-build/obj/gecko_sdk_4.3.1/platform/service/device_init/src/sl_device_init_dcdc_s2.o
 .data          0x0000000000000000        0x0 vscode-build/obj/gecko_sdk_4.3.1/platform/service/device_init/src/sl_device_init_dcdc_s2.o
 .bss           0x0000000000000000        0x0 vscode-build/obj/gecko_sdk_4.3.1/platform/service/device_init/src/sl_device_init_dcdc_s2.o
 .text          0x0000000000000000        0x0 vscode-build/obj/gecko_sdk_4.3.1/platform/service/device_init/src/sl_device_init_emu_s2.o
 .data          0x0000000000000000        0x0 vscode-build/obj/gecko_sdk_4.3.1/platform/service/device_init/src/sl_device_init_emu_s2.o
 .bss           0x0000000000000000        0x0 vscode-build/obj/gecko_sdk_4.3.1/platform/service/device_init/src/sl_device_init_emu_s2.o
 .text          0x0000000000000000        0x0 vscode-build/obj/gecko_sdk_4.3.1/platform/service/device_init/src/sl_device_init_hfxo_s2.o
 .data          0x0000000000000000        0x0 vscode-build/obj/gecko_sdk_4.3.1/platform/service/device_init/src/sl_device_init_hfxo_s2.o
 .bss           0x0000000000000000        0x0 vscode-build/obj/gecko_sdk_4.3.1/platform/service/device_init/src/sl_device_init_hfxo_s2.o
 .text          0x0000000000000000        0x0 vscode-build/obj/gecko_sdk_4.3.1/platform/service/device_init/src/sl_device_init_lfxo_s2.o
 .data          0x0000000000000000        0x0 vscode-build/obj/gecko_sdk_4.3.1/platform/service/device_init/src/sl_device_init_lfxo_s2.o
 .bss           0x0000000000000000        0x0 vscode-build/obj/gecko_sdk_4.3.1/platform/service/device_init/src/sl_device_init_lfxo_s2.o
 .text          0x0000000000000000        0x0 vscode-build/obj/gecko_sdk_4.3.1/platform/service/device_init/src/sl_device_init_nvic.o
 .data          0x0000000000000000        0x0 vscode-build/obj/gecko_sdk_4.3.1/platform/service/device_init/src/sl_device_init_nvic.o
 .bss           0x0000000000000000        0x0 vscode-build/obj/gecko_sdk_4.3.1/platform/service/device_init/src/sl_device_init_nvic.o
 .text          0x0000000000000000        0x0 vscode-build/obj/gecko_sdk_4.3.1/platform/service/iostream/src/sl_iostream.o
 .data          0x0000000000000000        0x0 vscode-build/obj/gecko_sdk_4.3.1/platform/service/iostream/src/sl_iostream.o
 .bss           0x0000000000000000        0x0 vscode-build/obj/gecko_sdk_4.3.1/platform/service/iostream/src/sl_iostream.o
 .text.sl_iostream_vprintf
                0x0000000000000000       0x42 vscode-build/obj/gecko_sdk_4.3.1/platform/service/iostream/src/sl_iostream.o
 .text.sl_iostream_printf
                0x0000000000000000       0x1a vscode-build/obj/gecko_sdk_4.3.1/platform/service/iostream/src/sl_iostream.o
 .bss.sl_iostream_null
                0x0000000000000000        0xc vscode-build/obj/gecko_sdk_4.3.1/platform/service/iostream/src/sl_iostream.o
 .text          0x0000000000000000        0x0 vscode-build/obj/gecko_sdk_4.3.1/platform/service/iostream/src/sl_iostream_eusart.o
 .data          0x0000000000000000        0x0 vscode-build/obj/gecko_sdk_4.3.1/platform/service/iostream/src/sl_iostream_eusart.o
 .bss           0x0000000000000000        0x0 vscode-build/obj/gecko_sdk_4.3.1/platform/service/iostream/src/sl_iostream_eusart.o
 .text          0x0000000000000000        0x0 vscode-build/obj/gecko_sdk_4.3.1/platform/service/iostream/src/sl_iostream_retarget_stdio.o
 .data          0x0000000000000000        0x0 vscode-build/obj/gecko_sdk_4.3.1/platform/service/iostream/src/sl_iostream_retarget_stdio.o
 .bss           0x0000000000000000        0x0 vscode-build/obj/gecko_sdk_4.3.1/platform/service/iostream/src/sl_iostream_retarget_stdio.o
 .text._getpid  0x0000000000000000        0x4 vscode-build/obj/gecko_sdk_4.3.1/platform/service/iostream/src/sl_iostream_retarget_stdio.o
 .text._kill    0x0000000000000000        0x6 vscode-build/obj/gecko_sdk_4.3.1/platform/service/iostream/src/sl_iostream_retarget_stdio.o
 .text          0x0000000000000000        0x0 vscode-build/obj/gecko_sdk_4.3.1/platform/service/iostream/src/sl_iostream_stdlib_config.o
 .data          0x0000000000000000        0x0 vscode-build/obj/gecko_sdk_4.3.1/platform/service/iostream/src/sl_iostream_stdlib_config.o
 .bss           0x0000000000000000        0x0 vscode-build/obj/gecko_sdk_4.3.1/platform/service/iostream/src/sl_iostream_stdlib_config.o
 .text          0x0000000000000000        0x0 vscode-build/obj/gecko_sdk_4.3.1/platform/service/iostream/src/sl_iostream_uart.o
 .data          0x0000000000000000        0x0 vscode-build/obj/gecko_sdk_4.3.1/platform/service/iostream/src/sl_iostream_uart.o
 .bss           0x0000000000000000        0x0 vscode-build/obj/gecko_sdk_4.3.1/platform/service/iostream/src/sl_iostream_uart.o
 .text          0x0000000000000000        0x0 vscode-build/obj/gecko_sdk_4.3.1/platform/service/system/src/sl_system_init.o
 .data          0x0000000000000000        0x0 vscode-build/obj/gecko_sdk_4.3.1/platform/service/system/src/sl_system_init.o
 .bss           0x0000000000000000        0x0 vscode-build/obj/gecko_sdk_4.3.1/platform/service/system/src/sl_system_init.o
 .text          0x0000000000000000        0x0 vscode-build/obj/gecko_sdk_4.3.1/platform/service/system/src/sl_system_process_action.o
 .data          0x0000000000000000        0x0 vscode-build/obj/gecko_sdk_4.3.1/platform/service/system/src/sl_system_process_action.o
 .bss           0x0000000000000000        0x0 vscode-build/obj/gecko_sdk_4.3.1/platform/service/system/src/sl_system_process_action.o
 .text          0x0000000000000000        0x0 vscode-build/obj/gecko_sdk_4.3.1/platform/service/udelay/src/sl_udelay.o
 .data          0x0000000000000000        0x0 vscode-build/obj/gecko_sdk_4.3.1/platform/service/udelay/src/sl_udelay.o
 .bss           0x0000000000000000        0x0 vscode-build/obj/gecko_sdk_4.3.1/platform/service/udelay/src/sl_udelay.o
 .text          0x0000000000000000        0x0 vscode-build/obj/main.o
 .data          0x0000000000000000        0x0 vscode-build/obj/main.o
 .bss           0x0000000000000000        0x0 vscode-build/obj/main.o
 .text          0x0000000000000000        0x0 vscode-build/obj/nvm3_app.o
 .data          0x0000000000000000        0x0 vscode-build/obj/nvm3_app.o
 .bss           0x0000000000000000        0x0 vscode-build/obj/nvm3_app.o
 .text          0x0000000000000000       0xa0 /Applications/Simplicity Studio.app/Contents/Eclipse/developer/toolchains/gnu_arm/10.3_2021.10/bin/../lib/gcc/arm-none-eabi/10.3.1/thumb/v8-m.main+fp/hard/libgcc.a(_aeabi_ldivmod.o)
 .data          0x0000000000000000        0x0 /Applications/Simplicity Studio.app/Contents/Eclipse/developer/toolchains/gnu_arm/10.3_2021.10/bin/../lib/gcc/arm-none-eabi/10.3.1/thumb/v8-m.main+fp/hard/libgcc.a(_aeabi_ldivmod.o)
 .bss           0x0000000000000000        0x0 /Applications/Simplicity Studio.app/Contents/Eclipse/developer/toolchains/gnu_arm/10.3_2021.10/bin/../lib/gcc/arm-none-eabi/10.3.1/thumb/v8-m.main+fp/hard/libgcc.a(_aeabi_ldivmod.o)
 .debug_frame   0x0000000000000000       0x44 /Applications/Simplicity Studio.app/Contents/Eclipse/developer/toolchains/gnu_arm/10.3_2021.10/bin/../lib/gcc/arm-none-eabi/10.3.1/thumb/v8-m.main+fp/hard/libgcc.a(_aeabi_ldivmod.o)
 .ARM.attributes
                0x0000000000000000       0x22 /Applications/Simplicity Studio.app/Contents/Eclipse/developer/toolchains/gnu_arm/10.3_2021.10/bin/../lib/gcc/arm-none-eabi/10.3.1/thumb/v8-m.main+fp/hard/libgcc.a(_aeabi_ldivmod.o)
 .data          0x0000000000000000        0x0 /Applications/Simplicity Studio.app/Contents/Eclipse/developer/toolchains/gnu_arm/10.3_2021.10/bin/../lib/gcc/arm-none-eabi/10.3.1/thumb/v8-m.main+fp/hard/libgcc.a(_aeabi_uldivmod.o)
 .bss           0x0000000000000000        0x0 /Applications/Simplicity Studio.app/Contents/Eclipse/developer/toolchains/gnu_arm/10.3_2021.10/bin/../lib/gcc/arm-none-eabi/10.3.1/thumb/v8-m.main+fp/hard/libgcc.a(_aeabi_uldivmod.o)
 .data          0x0000000000000000        0x0 /Applications/Simplicity Studio.app/Contents/Eclipse/developer/toolchains/gnu_arm/10.3_2021.10/bin/../lib/gcc/arm-none-eabi/10.3.1/thumb/v8-m.main+fp/hard/libgcc.a(_udivmoddi4.o)
 .bss           0x0000000000000000        0x0 /Applications/Simplicity Studio.app/Contents/Eclipse/developer/toolchains/gnu_arm/10.3_2021.10/bin/../lib/gcc/arm-none-eabi/10.3.1/thumb/v8-m.main+fp/hard/libgcc.a(_udivmoddi4.o)
 .ARM.extab     0x0000000000000000        0x0 /Applications/Simplicity Studio.app/Contents/Eclipse/developer/toolchains/gnu_arm/10.3_2021.10/bin/../lib/gcc/arm-none-eabi/10.3.1/thumb/v8-m.main+fp/hard/libgcc.a(_udivmoddi4.o)
 .data          0x0000000000000000        0x0 /Applications/Simplicity Studio.app/Contents/Eclipse/developer/toolchains/gnu_arm/10.3_2021.10/bin/../lib/gcc/arm-none-eabi/10.3.1/thumb/v8-m.main+fp/hard/libgcc.a(_dvmd_tls.o)
 .bss           0x0000000000000000        0x0 /Applications/Simplicity Studio.app/Contents/Eclipse/developer/toolchains/gnu_arm/10.3_2021.10/bin/../lib/gcc/arm-none-eabi/10.3.1/thumb/v8-m.main+fp/hard/libgcc.a(_dvmd_tls.o)
 .text          0x0000000000000000        0x0 /Applications/Simplicity Studio.app/Contents/Eclipse/developer/toolchains/gnu_arm/10.3_2021.10/bin/../lib/gcc/arm-none-eabi/10.3.1/../../../../arm-none-eabi/lib/thumb/v8-m.main+fp/hard/libc_nano.a(lib_a-ctype_.o)
 .data          0x0000000000000000        0x0 /Applications/Simplicity Studio.app/Contents/Eclipse/developer/toolchains/gnu_arm/10.3_2021.10/bin/../lib/gcc/arm-none-eabi/10.3.1/../../../../arm-none-eabi/lib/thumb/v8-m.main+fp/hard/libc_nano.a(lib_a-ctype_.o)
 .bss           0x0000000000000000        0x0 /Applications/Simplicity Studio.app/Contents/Eclipse/developer/toolchains/gnu_arm/10.3_2021.10/bin/../lib/gcc/arm-none-eabi/10.3.1/../../../../arm-none-eabi/lib/thumb/v8-m.main+fp/hard/libc_nano.a(lib_a-ctype_.o)
 .text          0x0000000000000000        0x0 /Applications/Simplicity Studio.app/Contents/Eclipse/developer/toolchains/gnu_arm/10.3_2021.10/bin/../lib/gcc/arm-none-eabi/10.3.1/../../../../arm-none-eabi/lib/thumb/v8-m.main+fp/hard/libc_nano.a(lib_a-exit.o)
 .data          0x0000000000000000        0x0 /Applications/Simplicity Studio.app/Contents/Eclipse/developer/toolchains/gnu_arm/10.3_2021.10/bin/../lib/gcc/arm-none-eabi/10.3.1/../../../../arm-none-eabi/lib/thumb/v8-m.main+fp/hard/libc_nano.a(lib_a-exit.o)
 .bss           0x0000000000000000        0x0 /Applications/Simplicity Studio.app/Contents/Eclipse/developer/toolchains/gnu_arm/10.3_2021.10/bin/../lib/gcc/arm-none-eabi/10.3.1/../../../../arm-none-eabi/lib/thumb/v8-m.main+fp/hard/libc_nano.a(lib_a-exit.o)
 .text          0x0000000000000000        0x0 /Applications/Simplicity Studio.app/Contents/Eclipse/developer/toolchains/gnu_arm/10.3_2021.10/bin/../lib/gcc/arm-none-eabi/10.3.1/../../../../arm-none-eabi/lib/thumb/v8-m.main+fp/hard/libc_nano.a(lib_a-impure.o)
 .data          0x0000000000000000        0x0 /Applications/Simplicity Studio.app/Contents/Eclipse/developer/toolchains/gnu_arm/10.3_2021.10/bin/../lib/gcc/arm-none-eabi/10.3.1/../../../../arm-none-eabi/lib/thumb/v8-m.main+fp/hard/libc_nano.a(lib_a-impure.o)
 .bss           0x0000000000000000        0x0 /Applications/Simplicity Studio.app/Contents/Eclipse/developer/toolchains/gnu_arm/10.3_2021.10/bin/../lib/gcc/arm-none-eabi/10.3.1/../../../../arm-none-eabi/lib/thumb/v8-m.main+fp/hard/libc_nano.a(lib_a-impure.o)
 .text          0x0000000000000000        0x0 /Applications/Simplicity Studio.app/Contents/Eclipse/developer/toolchains/gnu_arm/10.3_2021.10/bin/../lib/gcc/arm-none-eabi/10.3.1/../../../../arm-none-eabi/lib/thumb/v8-m.main+fp/hard/libc_nano.a(lib_a-init.o)
 .data          0x0000000000000000        0x0 /Applications/Simplicity Studio.app/Contents/Eclipse/developer/toolchains/gnu_arm/10.3_2021.10/bin/../lib/gcc/arm-none-eabi/10.3.1/../../../../arm-none-eabi/lib/thumb/v8-m.main+fp/hard/libc_nano.a(lib_a-init.o)
 .bss           0x0000000000000000        0x0 /Applications/Simplicity Studio.app/Contents/Eclipse/developer/toolchains/gnu_arm/10.3_2021.10/bin/../lib/gcc/arm-none-eabi/10.3.1/../../../../arm-none-eabi/lib/thumb/v8-m.main+fp/hard/libc_nano.a(lib_a-init.o)
 .text          0x0000000000000000        0x0 /Applications/Simplicity Studio.app/Contents/Eclipse/developer/toolchains/gnu_arm/10.3_2021.10/bin/../lib/gcc/arm-none-eabi/10.3.1/../../../../arm-none-eabi/lib/thumb/v8-m.main+fp/hard/libc_nano.a(lib_a-memcmp.o)
 .data          0x0000000000000000        0x0 /Applications/Simplicity Studio.app/Contents/Eclipse/developer/toolchains/gnu_arm/10.3_2021.10/bin/../lib/gcc/arm-none-eabi/10.3.1/../../../../arm-none-eabi/lib/thumb/v8-m.main+fp/hard/libc_nano.a(lib_a-memcmp.o)
 .bss           0x0000000000000000        0x0 /Applications/Simplicity Studio.app/Contents/Eclipse/developer/toolchains/gnu_arm/10.3_2021.10/bin/../lib/gcc/arm-none-eabi/10.3.1/../../../../arm-none-eabi/lib/thumb/v8-m.main+fp/hard/libc_nano.a(lib_a-memcmp.o)
 .text          0x0000000000000000        0x0 /Applications/Simplicity Studio.app/Contents/Eclipse/developer/toolchains/gnu_arm/10.3_2021.10/bin/../lib/gcc/arm-none-eabi/10.3.1/../../../../arm-none-eabi/lib/thumb/v8-m.main+fp/hard/libc_nano.a(lib_a-memcpy-stub.o)
 .data          0x0000000000000000        0x0 /Applications/Simplicity Studio.app/Contents/Eclipse/developer/toolchains/gnu_arm/10.3_2021.10/bin/../lib/gcc/arm-none-eabi/10.3.1/../../../../arm-none-eabi/lib/thumb/v8-m.main+fp/hard/libc_nano.a(lib_a-memcpy-stub.o)
 .bss           0x0000000000000000        0x0 /Applications/Simplicity Studio.app/Contents/Eclipse/developer/toolchains/gnu_arm/10.3_2021.10/bin/../lib/gcc/arm-none-eabi/10.3.1/../../../../arm-none-eabi/lib/thumb/v8-m.main+fp/hard/libc_nano.a(lib_a-memcpy-stub.o)
 .text          0x0000000000000000        0x0 /Applications/Simplicity Studio.app/Contents/Eclipse/developer/toolchains/gnu_arm/10.3_2021.10/bin/../lib/gcc/arm-none-eabi/10.3.1/../../../../arm-none-eabi/lib/thumb/v8-m.main+fp/hard/libc_nano.a(lib_a-memmove.o)
 .data          0x0000000000000000        0x0 /Applications/Simplicity Studio.app/Contents/Eclipse/developer/toolchains/gnu_arm/10.3_2021.10/bin/../lib/gcc/arm-none-eabi/10.3.1/../../../../arm-none-eabi/lib/thumb/v8-m.main+fp/hard/libc_nano.a(lib_a-memmove.o)
 .bss           0x0000000000000000        0x0 /Applications/Simplicity Studio.app/Contents/Eclipse/developer/toolchains/gnu_arm/10.3_2021.10/bin/../lib/gcc/arm-none-eabi/10.3.1/../../../../arm-none-eabi/lib/thumb/v8-m.main+fp/hard/libc_nano.a(lib_a-memmove.o)
 .text          0x0000000000000000        0x0 /Applications/Simplicity Studio.app/Contents/Eclipse/developer/toolchains/gnu_arm/10.3_2021.10/bin/../lib/gcc/arm-none-eabi/10.3.1/../../../../arm-none-eabi/lib/thumb/v8-m.main+fp/hard/libc_nano.a(lib_a-memset.o)
 .data          0x0000000000000000        0x0 /Applications/Simplicity Studio.app/Contents/Eclipse/developer/toolchains/gnu_arm/10.3_2021.10/bin/../lib/gcc/arm-none-eabi/10.3.1/../../../../arm-none-eabi/lib/thumb/v8-m.main+fp/hard/libc_nano.a(lib_a-memset.o)
 .bss           0x0000000000000000        0x0 /Applications/Simplicity Studio.app/Contents/Eclipse/developer/toolchains/gnu_arm/10.3_2021.10/bin/../lib/gcc/arm-none-eabi/10.3.1/../../../../arm-none-eabi/lib/thumb/v8-m.main+fp/hard/libc_nano.a(lib_a-memset.o)
 .text          0x0000000000000000        0x0 /Applications/Simplicity Studio.app/Contents/Eclipse/developer/toolchains/gnu_arm/10.3_2021.10/bin/../lib/gcc/arm-none-eabi/10.3.1/../../../../arm-none-eabi/lib/thumb/v8-m.main+fp/hard/libc_nano.a(lib_a-printf.o)
 .data          0x0000000000000000        0x0 /Applications/Simplicity Studio.app/Contents/Eclipse/developer/toolchains/gnu_arm/10.3_2021.10/bin/../lib/gcc/arm-none-eabi/10.3.1/../../../../arm-none-eabi/lib/thumb/v8-m.main+fp/hard/libc_nano.a(lib_a-printf.o)
 .bss           0x0000000000000000        0x0 /Applications/Simplicity Studio.app/Contents/Eclipse/developer/toolchains/gnu_arm/10.3_2021.10/bin/../lib/gcc/arm-none-eabi/10.3.1/../../../../arm-none-eabi/lib/thumb/v8-m.main+fp/hard/libc_nano.a(lib_a-printf.o)
 .text._printf_r
                0x0000000000000000       0x28 /Applications/Simplicity Studio.app/Contents/Eclipse/developer/toolchains/gnu_arm/10.3_2021.10/bin/../lib/gcc/arm-none-eabi/10.3.1/../../../../arm-none-eabi/lib/thumb/v8-m.main+fp/hard/libc_nano.a(lib_a-printf.o)
 .text          0x0000000000000000        0x0 /Applications/Simplicity Studio.app/Contents/Eclipse/developer/toolchains/gnu_arm/10.3_2021.10/bin/../lib/gcc/arm-none-eabi/10.3.1/../../../../arm-none-eabi/lib/thumb/v8-m.main+fp/hard/libc_nano.a(lib_a-puts.o)
 .data          0x0000000000000000        0x0 /Applications/Simplicity Studio.app/Contents/Eclipse/developer/toolchains/gnu_arm/10.3_2021.10/bin/../lib/gcc/arm-none-eabi/10.3.1/../../../../arm-none-eabi/lib/thumb/v8-m.main+fp/hard/libc_nano.a(lib_a-puts.o)
 .bss           0x0000000000000000        0x0 /Applications/Simplicity Studio.app/Contents/Eclipse/developer/toolchains/gnu_arm/10.3_2021.10/bin/../lib/gcc/arm-none-eabi/10.3.1/../../../../arm-none-eabi/lib/thumb/v8-m.main+fp/hard/libc_nano.a(lib_a-puts.o)
 .text          0x0000000000000000        0x0 /Applications/Simplicity Studio.app/Contents/Eclipse/developer/toolchains/gnu_arm/10.3_2021.10/bin/../lib/gcc/arm-none-eabi/10.3.1/../../../../arm-none-eabi/lib/thumb/v8-m.main+fp/hard/libc_nano.a(lib_a-setvbuf.o)
 .data          0x0000000000000000        0x0 /Applications/Simplicity Studio.app/Contents/Eclipse/developer/toolchains/gnu_arm/10.3_2021.10/bin/../lib/gcc/arm-none-eabi/10.3.1/../../../../arm-none-eabi/lib/thumb/v8-m.main+fp/hard/libc_nano.a(lib_a-setvbuf.o)
 .bss           0x0000000000000000        0x0 /Applications/Simplicity Studio.app/Contents/Eclipse/developer/toolchains/gnu_arm/10.3_2021.10/bin/../lib/gcc/arm-none-eabi/10.3.1/../../../../arm-none-eabi/lib/thumb/v8-m.main+fp/hard/libc_nano.a(lib_a-setvbuf.o)
 .data          0x0000000000000000        0x0 /Applications/Simplicity Studio.app/Contents/Eclipse/developer/toolchains/gnu_arm/10.3_2021.10/bin/../lib/gcc/arm-none-eabi/10.3.1/../../../../arm-none-eabi/lib/thumb/v8-m.main+fp/hard/libc_nano.a(lib_a-strcmp.o)
 .bss           0x0000000000000000        0x0 /Applications/Simplicity Studio.app/Contents/Eclipse/developer/toolchains/gnu_arm/10.3_2021.10/bin/../lib/gcc/arm-none-eabi/10.3.1/../../../../arm-none-eabi/lib/thumb/v8-m.main+fp/hard/libc_nano.a(lib_a-strcmp.o)
 .data          0x0000000000000000        0x0 /Applications/Simplicity Studio.app/Contents/Eclipse/developer/toolchains/gnu_arm/10.3_2021.10/bin/../lib/gcc/arm-none-eabi/10.3.1/../../../../arm-none-eabi/lib/thumb/v8-m.main+fp/hard/libc_nano.a(lib_a-strlen.o)
 .bss           0x0000000000000000        0x0 /Applications/Simplicity Studio.app/Contents/Eclipse/developer/toolchains/gnu_arm/10.3_2021.10/bin/../lib/gcc/arm-none-eabi/10.3.1/../../../../arm-none-eabi/lib/thumb/v8-m.main+fp/hard/libc_nano.a(lib_a-strlen.o)
 .text          0x0000000000000000        0x0 /Applications/Simplicity Studio.app/Contents/Eclipse/developer/toolchains/gnu_arm/10.3_2021.10/bin/../lib/gcc/arm-none-eabi/10.3.1/../../../../arm-none-eabi/lib/thumb/v8-m.main+fp/hard/libc_nano.a(lib_a-strncmp.o)
 .data          0x0000000000000000        0x0 /Applications/Simplicity Studio.app/Contents/Eclipse/developer/toolchains/gnu_arm/10.3_2021.10/bin/../lib/gcc/arm-none-eabi/10.3.1/../../../../arm-none-eabi/lib/thumb/v8-m.main+fp/hard/libc_nano.a(lib_a-strncmp.o)
 .bss           0x0000000000000000        0x0 /Applications/Simplicity Studio.app/Contents/Eclipse/developer/toolchains/gnu_arm/10.3_2021.10/bin/../lib/gcc/arm-none-eabi/10.3.1/../../../../arm-none-eabi/lib/thumb/v8-m.main+fp/hard/libc_nano.a(lib_a-strncmp.o)
 .text          0x0000000000000000        0x0 /Applications/Simplicity Studio.app/Contents/Eclipse/developer/toolchains/gnu_arm/10.3_2021.10/bin/../lib/gcc/arm-none-eabi/10.3.1/../../../../arm-none-eabi/lib/thumb/v8-m.main+fp/hard/libc_nano.a(lib_a-strtol.o)
 .data          0x0000000000000000        0x0 /Applications/Simplicity Studio.app/Contents/Eclipse/developer/toolchains/gnu_arm/10.3_2021.10/bin/../lib/gcc/arm-none-eabi/10.3.1/../../../../arm-none-eabi/lib/thumb/v8-m.main+fp/hard/libc_nano.a(lib_a-strtol.o)
 .bss           0x0000000000000000        0x0 /Applications/Simplicity Studio.app/Contents/Eclipse/developer/toolchains/gnu_arm/10.3_2021.10/bin/../lib/gcc/arm-none-eabi/10.3.1/../../../../arm-none-eabi/lib/thumb/v8-m.main+fp/hard/libc_nano.a(lib_a-strtol.o)
 .text._strtol_r
                0x0000000000000000        0x4 /Applications/Simplicity Studio.app/Contents/Eclipse/developer/toolchains/gnu_arm/10.3_2021.10/bin/../lib/gcc/arm-none-eabi/10.3.1/../../../../arm-none-eabi/lib/thumb/v8-m.main+fp/hard/libc_nano.a(lib_a-strtol.o)
 .text.strtol_l
                0x0000000000000000       0x14 /Applications/Simplicity Studio.app/Contents/Eclipse/developer/toolchains/gnu_arm/10.3_2021.10/bin/../lib/gcc/arm-none-eabi/10.3.1/../../../../arm-none-eabi/lib/thumb/v8-m.main+fp/hard/libc_nano.a(lib_a-strtol.o)
 .text          0x0000000000000000        0x0 /Applications/Simplicity Studio.app/Contents/Eclipse/developer/toolchains/gnu_arm/10.3_2021.10/bin/../lib/gcc/arm-none-eabi/10.3.1/../../../../arm-none-eabi/lib/thumb/v8-m.main+fp/hard/libc_nano.a(lib_a-strtoll.o)
 .data          0x0000000000000000        0x0 /Applications/Simplicity Studio.app/Contents/Eclipse/developer/toolchains/gnu_arm/10.3_2021.10/bin/../lib/gcc/arm-none-eabi/10.3.1/../../../../arm-none-eabi/lib/thumb/v8-m.main+fp/hard/libc_nano.a(lib_a-strtoll.o)
 .bss           0x0000000000000000        0x0 /Applications/Simplicity Studio.app/Contents/Eclipse/developer/toolchains/gnu_arm/10.3_2021.10/bin/../lib/gcc/arm-none-eabi/10.3.1/../../../../arm-none-eabi/lib/thumb/v8-m.main+fp/hard/libc_nano.a(lib_a-strtoll.o)
 .text._strtoll_r
                0x0000000000000000        0x4 /Applications/Simplicity Studio.app/Contents/Eclipse/developer/toolchains/gnu_arm/10.3_2021.10/bin/../lib/gcc/arm-none-eabi/10.3.1/../../../../arm-none-eabi/lib/thumb/v8-m.main+fp/hard/libc_nano.a(lib_a-strtoll.o)
 .text.strtoll_l
                0x0000000000000000       0x14 /Applications/Simplicity Studio.app/Contents/Eclipse/developer/toolchains/gnu_arm/10.3_2021.10/bin/../lib/gcc/arm-none-eabi/10.3.1/../../../../arm-none-eabi/lib/thumb/v8-m.main+fp/hard/libc_nano.a(lib_a-strtoll.o)
 .text          0x0000000000000000        0x0 /Applications/Simplicity Studio.app/Contents/Eclipse/developer/toolchains/gnu_arm/10.3_2021.10/bin/../lib/gcc/arm-none-eabi/10.3.1/../../../../arm-none-eabi/lib/thumb/v8-m.main+fp/hard/libc_nano.a(lib_a-strtoul.o)
 .data          0x0000000000000000        0x0 /Applications/Simplicity Studio.app/Contents/Eclipse/developer/toolchains/gnu_arm/10.3_2021.10/bin/../lib/gcc/arm-none-eabi/10.3.1/../../../../arm-none-eabi/lib/thumb/v8-m.main+fp/hard/libc_nano.a(lib_a-strtoul.o)
 .bss           0x0000000000000000        0x0 /Applications/Simplicity Studio.app/Contents/Eclipse/developer/toolchains/gnu_arm/10.3_2021.10/bin/../lib/gcc/arm-none-eabi/10.3.1/../../../../arm-none-eabi/lib/thumb/v8-m.main+fp/hard/libc_nano.a(lib_a-strtoul.o)
 .text._strtoul_r
                0x0000000000000000        0x4 /Applications/Simplicity Studio.app/Contents/Eclipse/developer/toolchains/gnu_arm/10.3_2021.10/bin/../lib/gcc/arm-none-eabi/10.3.1/../../../../arm-none-eabi/lib/thumb/v8-m.main+fp/hard/libc_nano.a(lib_a-strtoul.o)
 .text.strtoul_l
                0x0000000000000000       0x14 /Applications/Simplicity Studio.app/Contents/Eclipse/developer/toolchains/gnu_arm/10.3_2021.10/bin/../lib/gcc/arm-none-eabi/10.3.1/../../../../arm-none-eabi/lib/thumb/v8-m.main+fp/hard/libc_nano.a(lib_a-strtoul.o)
 .text          0x0000000000000000        0x0 /Applications/Simplicity Studio.app/Contents/Eclipse/developer/toolchains/gnu_arm/10.3_2021.10/bin/../lib/gcc/arm-none-eabi/10.3.1/../../../../arm-none-eabi/lib/thumb/v8-m.main+fp/hard/libc_nano.a(lib_a-vprintf.o)
 .data          0x0000000000000000        0x0 /Applications/Simplicity Studio.app/Contents/Eclipse/developer/toolchains/gnu_arm/10.3_2021.10/bin/../lib/gcc/arm-none-eabi/10.3.1/../../../../arm-none-eabi/lib/thumb/v8-m.main+fp/hard/libc_nano.a(lib_a-vprintf.o)
 .bss           0x0000000000000000        0x0 /Applications/Simplicity Studio.app/Contents/Eclipse/developer/toolchains/gnu_arm/10.3_2021.10/bin/../lib/gcc/arm-none-eabi/10.3.1/../../../../arm-none-eabi/lib/thumb/v8-m.main+fp/hard/libc_nano.a(lib_a-vprintf.o)
 .text._vprintf_r
                0x0000000000000000       0x26 /Applications/Simplicity Studio.app/Contents/Eclipse/developer/toolchains/gnu_arm/10.3_2021.10/bin/../lib/gcc/arm-none-eabi/10.3.1/../../../../arm-none-eabi/lib/thumb/v8-m.main+fp/hard/libc_nano.a(lib_a-vprintf.o)
 .text          0x0000000000000000        0x0 /Applications/Simplicity Studio.app/Contents/Eclipse/developer/toolchains/gnu_arm/10.3_2021.10/bin/../lib/gcc/arm-none-eabi/10.3.1/../../../../arm-none-eabi/lib/thumb/v8-m.main+fp/hard/libc_nano.a(lib_a-wbuf.o)
 .data          0x0000000000000000        0x0 /Applications/Simplicity Studio.app/Contents/Eclipse/developer/toolchains/gnu_arm/10.3_2021.10/bin/../lib/gcc/arm-none-eabi/10.3.1/../../../../arm-none-eabi/lib/thumb/v8-m.main+fp/hard/libc_nano.a(lib_a-wbuf.o)
 .bss           0x0000000000000000        0x0 /Applications/Simplicity Studio.app/Contents/Eclipse/developer/toolchains/gnu_arm/10.3_2021.10/bin/../lib/gcc/arm-none-eabi/10.3.1/../../../../arm-none-eabi/lib/thumb/v8-m.main+fp/hard/libc_nano.a(lib_a-wbuf.o)
 .text.__swbuf  0x0000000000000000       0x10 /Applications/Simplicity Studio.app/Contents/Eclipse/developer/toolchains/gnu_arm/10.3_2021.10/bin/../lib/gcc/arm-none-eabi/10.3.1/../../../../arm-none-eabi/lib/thumb/v8-m.main+fp/hard/libc_nano.a(lib_a-wbuf.o)
 .text          0x0000000000000000        0x0 /Applications/Simplicity Studio.app/Contents/Eclipse/developer/toolchains/gnu_arm/10.3_2021.10/bin/../lib/gcc/arm-none-eabi/10.3.1/../../../../arm-none-eabi/lib/thumb/v8-m.main+fp/hard/libc_nano.a(lib_a-wsetup.o)
 .data          0x0000000000000000        0x0 /Applications/Simplicity Studio.app/Contents/Eclipse/developer/toolchains/gnu_arm/10.3_2021.10/bin/../lib/gcc/arm-none-eabi/10.3.1/../../../../arm-none-eabi/lib/thumb/v8-m.main+fp/hard/libc_nano.a(lib_a-wsetup.o)
 .bss           0x0000000000000000        0x0 /Applications/Simplicity Studio.app/Contents/Eclipse/developer/toolchains/gnu_arm/10.3_2021.10/bin/../lib/gcc/arm-none-eabi/10.3.1/../../../../arm-none-eabi/lib/thumb/v8-m.main+fp/hard/libc_nano.a(lib_a-wsetup.o)
 .text          0x0000000000000000        0x0 /Applications/Simplicity Studio.app/Contents/Eclipse/developer/toolchains/gnu_arm/10.3_2021.10/bin/../lib/gcc/arm-none-eabi/10.3.1/../../../../arm-none-eabi/lib/thumb/v8-m.main+fp/hard/libc_nano.a(lib_a-errno.o)
 .data          0x0000000000000000        0x0 /Applications/Simplicity Studio.app/Contents/Eclipse/developer/toolchains/gnu_arm/10.3_2021.10/bin/../lib/gcc/arm-none-eabi/10.3.1/../../../../arm-none-eabi/lib/thumb/v8-m.main+fp/hard/libc_nano.a(lib_a-errno.o)
 .bss           0x0000000000000000        0x0 /Applications/Simplicity Studio.app/Contents/Eclipse/developer/toolchains/gnu_arm/10.3_2021.10/bin/../lib/gcc/arm-none-eabi/10.3.1/../../../../arm-none-eabi/lib/thumb/v8-m.main+fp/hard/libc_nano.a(lib_a-errno.o)
 .text          0x0000000000000000        0x0 /Applications/Simplicity Studio.app/Contents/Eclipse/developer/toolchains/gnu_arm/10.3_2021.10/bin/../lib/gcc/arm-none-eabi/10.3.1/../../../../arm-none-eabi/lib/thumb/v8-m.main+fp/hard/libc_nano.a(lib_a-fflush.o)
 .data          0x0000000000000000        0x0 /Applications/Simplicity Studio.app/Contents/Eclipse/developer/toolchains/gnu_arm/10.3_2021.10/bin/../lib/gcc/arm-none-eabi/10.3.1/../../../../arm-none-eabi/lib/thumb/v8-m.main+fp/hard/libc_nano.a(lib_a-fflush.o)
 .bss           0x0000000000000000        0x0 /Applications/Simplicity Studio.app/Contents/Eclipse/developer/toolchains/gnu_arm/10.3_2021.10/bin/../lib/gcc/arm-none-eabi/10.3.1/../../../../arm-none-eabi/lib/thumb/v8-m.main+fp/hard/libc_nano.a(lib_a-fflush.o)
 .text.fflush   0x0000000000000000       0x24 /Applications/Simplicity Studio.app/Contents/Eclipse/developer/toolchains/gnu_arm/10.3_2021.10/bin/../lib/gcc/arm-none-eabi/10.3.1/../../../../arm-none-eabi/lib/thumb/v8-m.main+fp/hard/libc_nano.a(lib_a-fflush.o)
 .text          0x0000000000000000        0x0 /Applications/Simplicity Studio.app/Contents/Eclipse/developer/toolchains/gnu_arm/10.3_2021.10/bin/../lib/gcc/arm-none-eabi/10.3.1/../../../../arm-none-eabi/lib/thumb/v8-m.main+fp/hard/libc_nano.a(lib_a-findfp.o)
 .data          0x0000000000000000        0x0 /Applications/Simplicity Studio.app/Contents/Eclipse/developer/toolchains/gnu_arm/10.3_2021.10/bin/../lib/gcc/arm-none-eabi/10.3.1/../../../../arm-none-eabi/lib/thumb/v8-m.main+fp/hard/libc_nano.a(lib_a-findfp.o)
 .bss           0x0000000000000000        0x0 /Applications/Simplicity Studio.app/Contents/Eclipse/developer/toolchains/gnu_arm/10.3_2021.10/bin/../lib/gcc/arm-none-eabi/10.3.1/../../../../arm-none-eabi/lib/thumb/v8-m.main+fp/hard/libc_nano.a(lib_a-findfp.o)
 .text.__fp_lock
                0x0000000000000000       0x18 /Applications/Simplicity Studio.app/Contents/Eclipse/developer/toolchains/gnu_arm/10.3_2021.10/bin/../lib/gcc/arm-none-eabi/10.3.1/../../../../arm-none-eabi/lib/thumb/v8-m.main+fp/hard/libc_nano.a(lib_a-findfp.o)
 .text.__fp_unlock
                0x0000000000000000       0x18 /Applications/Simplicity Studio.app/Contents/Eclipse/developer/toolchains/gnu_arm/10.3_2021.10/bin/../lib/gcc/arm-none-eabi/10.3.1/../../../../arm-none-eabi/lib/thumb/v8-m.main+fp/hard/libc_nano.a(lib_a-findfp.o)
 .text._cleanup
                0x0000000000000000        0xc /Applications/Simplicity Studio.app/Contents/Eclipse/developer/toolchains/gnu_arm/10.3_2021.10/bin/../lib/gcc/arm-none-eabi/10.3.1/../../../../arm-none-eabi/lib/thumb/v8-m.main+fp/hard/libc_nano.a(lib_a-findfp.o)
 .text.__fp_lock_all
                0x0000000000000000       0x1c /Applications/Simplicity Studio.app/Contents/Eclipse/developer/toolchains/gnu_arm/10.3_2021.10/bin/../lib/gcc/arm-none-eabi/10.3.1/../../../../arm-none-eabi/lib/thumb/v8-m.main+fp/hard/libc_nano.a(lib_a-findfp.o)
 .text.__fp_unlock_all
                0x0000000000000000       0x1c /Applications/Simplicity Studio.app/Contents/Eclipse/developer/toolchains/gnu_arm/10.3_2021.10/bin/../lib/gcc/arm-none-eabi/10.3.1/../../../../arm-none-eabi/lib/thumb/v8-m.main+fp/hard/libc_nano.a(lib_a-findfp.o)
 .text          0x0000000000000000        0x0 /Applications/Simplicity Studio.app/Contents/Eclipse/developer/toolchains/gnu_arm/10.3_2021.10/bin/../lib/gcc/arm-none-eabi/10.3.1/../../../../arm-none-eabi/lib/thumb/v8-m.main+fp/hard/libc_nano.a(lib_a-fwalk.o)
 .data          0x0000000000000000        0x0 /Applications/Simplicity Studio.app/Contents/Eclipse/developer/toolchains/gnu_arm/10.3_2021.10/bin/../lib/gcc/arm-none-eabi/10.3.1/../../../../arm-none-eabi/lib/thumb/v8-m.main+fp/hard/libc_nano.a(lib_a-fwalk.o)
 .bss           0x0000000000000000        0x0 /Applications/Simplicity Studio.app/Contents/Eclipse/developer/toolchains/gnu_arm/10.3_2021.10/bin/../lib/gcc/arm-none-eabi/10.3.1/../../../../arm-none-eabi/lib/thumb/v8-m.main+fp/hard/libc_nano.a(lib_a-fwalk.o)
 .text._fwalk   0x0000000000000000       0x3a /Applications/Simplicity Studio.app/Contents/Eclipse/developer/toolchains/gnu_arm/10.3_2021.10/bin/../lib/gcc/arm-none-eabi/10.3.1/../../../../arm-none-eabi/lib/thumb/v8-m.main+fp/hard/libc_nano.a(lib_a-fwalk.o)
 .text          0x0000000000000000        0x0 /Applications/Simplicity Studio.app/Contents/Eclipse/developer/toolchains/gnu_arm/10.3_2021.10/bin/../lib/gcc/arm-none-eabi/10.3.1/../../../../arm-none-eabi/lib/thumb/v8-m.main+fp/hard/libc_nano.a(lib_a-lock.o)
 .data          0x0000000000000000        0x0 /Applications/Simplicity Studio.app/Contents/Eclipse/developer/toolchains/gnu_arm/10.3_2021.10/bin/../lib/gcc/arm-none-eabi/10.3.1/../../../../arm-none-eabi/lib/thumb/v8-m.main+fp/hard/libc_nano.a(lib_a-lock.o)
 .bss           0x0000000000000000        0x0 /Applications/Simplicity Studio.app/Contents/Eclipse/developer/toolchains/gnu_arm/10.3_2021.10/bin/../lib/gcc/arm-none-eabi/10.3.1/../../../../arm-none-eabi/lib/thumb/v8-m.main+fp/hard/libc_nano.a(lib_a-lock.o)
 .text.__retarget_lock_init
                0x0000000000000000        0x2 /Applications/Simplicity Studio.app/Contents/Eclipse/developer/toolchains/gnu_arm/10.3_2021.10/bin/../lib/gcc/arm-none-eabi/10.3.1/../../../../arm-none-eabi/lib/thumb/v8-m.main+fp/hard/libc_nano.a(lib_a-lock.o)
 .text.__retarget_lock_close
                0x0000000000000000        0x2 /Applications/Simplicity Studio.app/Contents/Eclipse/developer/toolchains/gnu_arm/10.3_2021.10/bin/../lib/gcc/arm-none-eabi/10.3.1/../../../../arm-none-eabi/lib/thumb/v8-m.main+fp/hard/libc_nano.a(lib_a-lock.o)
 .text.__retarget_lock_close_recursive
                0x0000000000000000        0x2 /Applications/Simplicity Studio.app/Contents/Eclipse/developer/toolchains/gnu_arm/10.3_2021.10/bin/../lib/gcc/arm-none-eabi/10.3.1/../../../../arm-none-eabi/lib/thumb/v8-m.main+fp/hard/libc_nano.a(lib_a-lock.o)
 .text.__retarget_lock_acquire
                0x0000000000000000        0x2 /Applications/Simplicity Studio.app/Contents/Eclipse/developer/toolchains/gnu_arm/10.3_2021.10/bin/../lib/gcc/arm-none-eabi/10.3.1/../../../../arm-none-eabi/lib/thumb/v8-m.main+fp/hard/libc_nano.a(lib_a-lock.o)
 .text.__retarget_lock_try_acquire
                0x0000000000000000        0x4 /Applications/Simplicity Studio.app/Contents/Eclipse/developer/toolchains/gnu_arm/10.3_2021.10/bin/../lib/gcc/arm-none-eabi/10.3.1/../../../../arm-none-eabi/lib/thumb/v8-m.main+fp/hard/libc_nano.a(lib_a-lock.o)
 .text.__retarget_lock_try_acquire_recursive
                0x0000000000000000        0x4 /Applications/Simplicity Studio.app/Contents/Eclipse/developer/toolchains/gnu_arm/10.3_2021.10/bin/../lib/gcc/arm-none-eabi/10.3.1/../../../../arm-none-eabi/lib/thumb/v8-m.main+fp/hard/libc_nano.a(lib_a-lock.o)
 .text.__retarget_lock_release
                0x0000000000000000        0x2 /Applications/Simplicity Studio.app/Contents/Eclipse/developer/toolchains/gnu_arm/10.3_2021.10/bin/../lib/gcc/arm-none-eabi/10.3.1/../../../../arm-none-eabi/lib/thumb/v8-m.main+fp/hard/libc_nano.a(lib_a-lock.o)
 .bss.__lock___arc4random_mutex
                0x0000000000000000        0x1 /Applications/Simplicity Studio.app/Contents/Eclipse/developer/toolchains/gnu_arm/10.3_2021.10/bin/../lib/gcc/arm-none-eabi/10.3.1/../../../../arm-none-eabi/lib/thumb/v8-m.main+fp/hard/libc_nano.a(lib_a-lock.o)
 .bss.__lock___at_quick_exit_mutex
                0x0000000000000000        0x1 /Applications/Simplicity Studio.app/Contents/Eclipse/developer/toolchains/gnu_arm/10.3_2021.10/bin/../lib/gcc/arm-none-eabi/10.3.1/../../../../arm-none-eabi/lib/thumb/v8-m.main+fp/hard/libc_nano.a(lib_a-lock.o)
 .bss.__lock___atexit_recursive_mutex
                0x0000000000000000        0x1 /Applications/Simplicity Studio.app/Contents/Eclipse/developer/toolchains/gnu_arm/10.3_2021.10/bin/../lib/gcc/arm-none-eabi/10.3.1/../../../../arm-none-eabi/lib/thumb/v8-m.main+fp/hard/libc_nano.a(lib_a-lock.o)
 .bss.__lock___dd_hash_mutex
                0x0000000000000000        0x1 /Applications/Simplicity Studio.app/Contents/Eclipse/developer/toolchains/gnu_arm/10.3_2021.10/bin/../lib/gcc/arm-none-eabi/10.3.1/../../../../arm-none-eabi/lib/thumb/v8-m.main+fp/hard/libc_nano.a(lib_a-lock.o)
 .bss.__lock___env_recursive_mutex
                0x0000000000000000        0x1 /Applications/Simplicity Studio.app/Contents/Eclipse/developer/toolchains/gnu_arm/10.3_2021.10/bin/../lib/gcc/arm-none-eabi/10.3.1/../../../../arm-none-eabi/lib/thumb/v8-m.main+fp/hard/libc_nano.a(lib_a-lock.o)
 .bss.__lock___tz_mutex
                0x0000000000000000        0x1 /Applications/Simplicity Studio.app/Contents/Eclipse/developer/toolchains/gnu_arm/10.3_2021.10/bin/../lib/gcc/arm-none-eabi/10.3.1/../../../../arm-none-eabi/lib/thumb/v8-m.main+fp/hard/libc_nano.a(lib_a-lock.o)
 .text          0x0000000000000000        0x0 /Applications/Simplicity Studio.app/Contents/Eclipse/developer/toolchains/gnu_arm/10.3_2021.10/bin/../lib/gcc/arm-none-eabi/10.3.1/../../../../arm-none-eabi/lib/thumb/v8-m.main+fp/hard/libc_nano.a(lib_a-makebuf.o)
 .data          0x0000000000000000        0x0 /Applications/Simplicity Studio.app/Contents/Eclipse/developer/toolchains/gnu_arm/10.3_2021.10/bin/../lib/gcc/arm-none-eabi/10.3.1/../../../../arm-none-eabi/lib/thumb/v8-m.main+fp/hard/libc_nano.a(lib_a-makebuf.o)
 .bss           0x0000000000000000        0x0 /Applications/Simplicity Studio.app/Contents/Eclipse/developer/toolchains/gnu_arm/10.3_2021.10/bin/../lib/gcc/arm-none-eabi/10.3.1/../../../../arm-none-eabi/lib/thumb/v8-m.main+fp/hard/libc_nano.a(lib_a-makebuf.o)
 .text          0x0000000000000000        0x0 /Applications/Simplicity Studio.app/Contents/Eclipse/developer/toolchains/gnu_arm/10.3_2021.10/bin/../lib/gcc/arm-none-eabi/10.3.1/../../../../arm-none-eabi/lib/thumb/v8-m.main+fp/hard/libc_nano.a(lib_a-malloc.o)
 .data          0x0000000000000000        0x0 /Applications/Simplicity Studio.app/Contents/Eclipse/developer/toolchains/gnu_arm/10.3_2021.10/bin/../lib/gcc/arm-none-eabi/10.3.1/../../../../arm-none-eabi/lib/thumb/v8-m.main+fp/hard/libc_nano.a(lib_a-malloc.o)
 .bss           0x0000000000000000        0x0 /Applications/Simplicity Studio.app/Contents/Eclipse/developer/toolchains/gnu_arm/10.3_2021.10/bin/../lib/gcc/arm-none-eabi/10.3.1/../../../../arm-none-eabi/lib/thumb/v8-m.main+fp/hard/libc_nano.a(lib_a-malloc.o)
 .text.free     0x0000000000000000       0x10 /Applications/Simplicity Studio.app/Contents/Eclipse/developer/toolchains/gnu_arm/10.3_2021.10/bin/../lib/gcc/arm-none-eabi/10.3.1/../../../../arm-none-eabi/lib/thumb/v8-m.main+fp/hard/libc_nano.a(lib_a-malloc.o)
 .text          0x0000000000000000        0x0 /Applications/Simplicity Studio.app/Contents/Eclipse/developer/toolchains/gnu_arm/10.3_2021.10/bin/../lib/gcc/arm-none-eabi/10.3.1/../../../../arm-none-eabi/lib/thumb/v8-m.main+fp/hard/libc_nano.a(lib_a-nano-freer.o)
 .data          0x0000000000000000        0x0 /Applications/Simplicity Studio.app/Contents/Eclipse/developer/toolchains/gnu_arm/10.3_2021.10/bin/../lib/gcc/arm-none-eabi/10.3.1/../../../../arm-none-eabi/lib/thumb/v8-m.main+fp/hard/libc_nano.a(lib_a-nano-freer.o)
 .bss           0x0000000000000000        0x0 /Applications/Simplicity Studio.app/Contents/Eclipse/developer/toolchains/gnu_arm/10.3_2021.10/bin/../lib/gcc/arm-none-eabi/10.3.1/../../../../arm-none-eabi/lib/thumb/v8-m.main+fp/hard/libc_nano.a(lib_a-nano-freer.o)
 .text          0x0000000000000000        0x0 /Applications/Simplicity Studio.app/Contents/Eclipse/developer/toolchains/gnu_arm/10.3_2021.10/bin/../lib/gcc/arm-none-eabi/10.3.1/../../../../arm-none-eabi/lib/thumb/v8-m.main+fp/hard/libc_nano.a(lib_a-nano-mallocr.o)
 .data          0x0000000000000000        0x0 /Applications/Simplicity Studio.app/Contents/Eclipse/developer/toolchains/gnu_arm/10.3_2021.10/bin/../lib/gcc/arm-none-eabi/10.3.1/../../../../arm-none-eabi/lib/thumb/v8-m.main+fp/hard/libc_nano.a(lib_a-nano-mallocr.o)
 .bss           0x0000000000000000        0x0 /Applications/Simplicity Studio.app/Contents/Eclipse/developer/toolchains/gnu_arm/10.3_2021.10/bin/../lib/gcc/arm-none-eabi/10.3.1/../../../../arm-none-eabi/lib/thumb/v8-m.main+fp/hard/libc_nano.a(lib_a-nano-mallocr.o)
 .text          0x0000000000000000        0x0 /Applications/Simplicity Studio.app/Contents/Eclipse/developer/toolchains/gnu_arm/10.3_2021.10/bin/../lib/gcc/arm-none-eabi/10.3.1/../../../../arm-none-eabi/lib/thumb/v8-m.main+fp/hard/libc_nano.a(lib_a-nano-vfprintf.o)
 .data          0x0000000000000000        0x0 /Applications/Simplicity Studio.app/Contents/Eclipse/developer/toolchains/gnu_arm/10.3_2021.10/bin/../lib/gcc/arm-none-eabi/10.3.1/../../../../arm-none-eabi/lib/thumb/v8-m.main+fp/hard/libc_nano.a(lib_a-nano-vfprintf.o)
 .bss           0x0000000000000000        0x0 /Applications/Simplicity Studio.app/Contents/Eclipse/developer/toolchains/gnu_arm/10.3_2021.10/bin/../lib/gcc/arm-none-eabi/10.3.1/../../../../arm-none-eabi/lib/thumb/v8-m.main+fp/hard/libc_nano.a(lib_a-nano-vfprintf.o)
 .text.__sprint_r
                0x0000000000000000       0x1a /Applications/Simplicity Studio.app/Contents/Eclipse/developer/toolchains/gnu_arm/10.3_2021.10/bin/../lib/gcc/arm-none-eabi/10.3.1/../../../../arm-none-eabi/lib/thumb/v8-m.main+fp/hard/libc_nano.a(lib_a-nano-vfprintf.o)
 .text.vfprintf
                0x0000000000000000       0x14 /Applications/Simplicity Studio.app/Contents/Eclipse/developer/toolchains/gnu_arm/10.3_2021.10/bin/../lib/gcc/arm-none-eabi/10.3.1/../../../../arm-none-eabi/lib/thumb/v8-m.main+fp/hard/libc_nano.a(lib_a-nano-vfprintf.o)
 .text          0x0000000000000000        0x0 /Applications/Simplicity Studio.app/Contents/Eclipse/developer/toolchains/gnu_arm/10.3_2021.10/bin/../lib/gcc/arm-none-eabi/10.3.1/../../../../arm-none-eabi/lib/thumb/v8-m.main+fp/hard/libc_nano.a(lib_a-nano-vfprintf_i.o)
 .data          0x0000000000000000        0x0 /Applications/Simplicity Studio.app/Contents/Eclipse/developer/toolchains/gnu_arm/10.3_2021.10/bin/../lib/gcc/arm-none-eabi/10.3.1/../../../../arm-none-eabi/lib/thumb/v8-m.main+fp/hard/libc_nano.a(lib_a-nano-vfprintf_i.o)
 .bss           0x0000000000000000        0x0 /Applications/Simplicity Studio.app/Contents/Eclipse/developer/toolchains/gnu_arm/10.3_2021.10/bin/../lib/gcc/arm-none-eabi/10.3.1/../../../../arm-none-eabi/lib/thumb/v8-m.main+fp/hard/libc_nano.a(lib_a-nano-vfprintf_i.o)
 .text          0x0000000000000000        0x0 /Applications/Simplicity Studio.app/Contents/Eclipse/developer/toolchains/gnu_arm/10.3_2021.10/bin/../lib/gcc/arm-none-eabi/10.3.1/../../../../arm-none-eabi/lib/thumb/v8-m.main+fp/hard/libc_nano.a(lib_a-sbrkr.o)
 .data          0x0000000000000000        0x0 /Applications/Simplicity Studio.app/Contents/Eclipse/developer/toolchains/gnu_arm/10.3_2021.10/bin/../lib/gcc/arm-none-eabi/10.3.1/../../../../arm-none-eabi/lib/thumb/v8-m.main+fp/hard/libc_nano.a(lib_a-sbrkr.o)
 .bss           0x0000000000000000        0x0 /Applications/Simplicity Studio.app/Contents/Eclipse/developer/toolchains/gnu_arm/10.3_2021.10/bin/../lib/gcc/arm-none-eabi/10.3.1/../../../../arm-none-eabi/lib/thumb/v8-m.main+fp/hard/libc_nano.a(lib_a-sbrkr.o)
 .text          0x0000000000000000        0x0 /Applications/Simplicity Studio.app/Contents/Eclipse/developer/toolchains/gnu_arm/10.3_2021.10/bin/../lib/gcc/arm-none-eabi/10.3.1/../../../../arm-none-eabi/lib/thumb/v8-m.main+fp/hard/libc_nano.a(lib_a-stdio.o)
 .data          0x0000000000000000        0x0 /Applications/Simplicity Studio.app/Contents/Eclipse/developer/toolchains/gnu_arm/10.3_2021.10/bin/../lib/gcc/arm-none-eabi/10.3.1/../../../../arm-none-eabi/lib/thumb/v8-m.main+fp/hard/libc_nano.a(lib_a-stdio.o)
 .bss           0x0000000000000000        0x0 /Applications/Simplicity Studio.app/Contents/Eclipse/developer/toolchains/gnu_arm/10.3_2021.10/bin/../lib/gcc/arm-none-eabi/10.3.1/../../../../arm-none-eabi/lib/thumb/v8-m.main+fp/hard/libc_nano.a(lib_a-stdio.o)
 .text.__seofread
                0x0000000000000000        0x4 /Applications/Simplicity Studio.app/Contents/Eclipse/developer/toolchains/gnu_arm/10.3_2021.10/bin/../lib/gcc/arm-none-eabi/10.3.1/../../../../arm-none-eabi/lib/thumb/v8-m.main+fp/hard/libc_nano.a(lib_a-stdio.o)
 .text          0x0000000000000000        0x0 /Applications/Simplicity Studio.app/Contents/Eclipse/developer/toolchains/gnu_arm/10.3_2021.10/bin/../lib/gcc/arm-none-eabi/10.3.1/../../../../arm-none-eabi/lib/thumb/v8-m.main+fp/hard/libc_nano.a(lib_a-writer.o)
 .data          0x0000000000000000        0x0 /Applications/Simplicity Studio.app/Contents/Eclipse/developer/toolchains/gnu_arm/10.3_2021.10/bin/../lib/gcc/arm-none-eabi/10.3.1/../../../../arm-none-eabi/lib/thumb/v8-m.main+fp/hard/libc_nano.a(lib_a-writer.o)
 .bss           0x0000000000000000        0x0 /Applications/Simplicity Studio.app/Contents/Eclipse/developer/toolchains/gnu_arm/10.3_2021.10/bin/../lib/gcc/arm-none-eabi/10.3.1/../../../../arm-none-eabi/lib/thumb/v8-m.main+fp/hard/libc_nano.a(lib_a-writer.o)
 .text          0x0000000000000000        0x0 /Applications/Simplicity Studio.app/Contents/Eclipse/developer/toolchains/gnu_arm/10.3_2021.10/bin/../lib/gcc/arm-none-eabi/10.3.1/../../../../arm-none-eabi/lib/thumb/v8-m.main+fp/hard/libc_nano.a(lib_a-closer.o)
 .data          0x0000000000000000        0x0 /Applications/Simplicity Studio.app/Contents/Eclipse/developer/toolchains/gnu_arm/10.3_2021.10/bin/../lib/gcc/arm-none-eabi/10.3.1/../../../../arm-none-eabi/lib/thumb/v8-m.main+fp/hard/libc_nano.a(lib_a-closer.o)
 .bss           0x0000000000000000        0x0 /Applications/Simplicity Studio.app/Contents/Eclipse/developer/toolchains/gnu_arm/10.3_2021.10/bin/../lib/gcc/arm-none-eabi/10.3.1/../../../../arm-none-eabi/lib/thumb/v8-m.main+fp/hard/libc_nano.a(lib_a-closer.o)
 .text          0x0000000000000000        0x0 /Applications/Simplicity Studio.app/Contents/Eclipse/developer/toolchains/gnu_arm/10.3_2021.10/bin/../lib/gcc/arm-none-eabi/10.3.1/../../../../arm-none-eabi/lib/thumb/v8-m.main+fp/hard/libc_nano.a(lib_a-fstatr.o)
 .data          0x0000000000000000        0x0 /Applications/Simplicity Studio.app/Contents/Eclipse/developer/toolchains/gnu_arm/10.3_2021.10/bin/../lib/gcc/arm-none-eabi/10.3.1/../../../../arm-none-eabi/lib/thumb/v8-m.main+fp/hard/libc_nano.a(lib_a-fstatr.o)
 .bss           0x0000000000000000        0x0 /Applications/Simplicity Studio.app/Contents/Eclipse/developer/toolchains/gnu_arm/10.3_2021.10/bin/../lib/gcc/arm-none-eabi/10.3.1/../../../../arm-none-eabi/lib/thumb/v8-m.main+fp/hard/libc_nano.a(lib_a-fstatr.o)
 .text          0x0000000000000000        0x0 /Applications/Simplicity Studio.app/Contents/Eclipse/developer/toolchains/gnu_arm/10.3_2021.10/bin/../lib/gcc/arm-none-eabi/10.3.1/../../../../arm-none-eabi/lib/thumb/v8-m.main+fp/hard/libc_nano.a(lib_a-fvwrite.o)
 .data          0x0000000000000000        0x0 /Applications/Simplicity Studio.app/Contents/Eclipse/developer/toolchains/gnu_arm/10.3_2021.10/bin/../lib/gcc/arm-none-eabi/10.3.1/../../../../arm-none-eabi/lib/thumb/v8-m.main+fp/hard/libc_nano.a(lib_a-fvwrite.o)
 .bss           0x0000000000000000        0x0 /Applications/Simplicity Studio.app/Contents/Eclipse/developer/toolchains/gnu_arm/10.3_2021.10/bin/../lib/gcc/arm-none-eabi/10.3.1/../../../../arm-none-eabi/lib/thumb/v8-m.main+fp/hard/libc_nano.a(lib_a-fvwrite.o)
 .text.__sfvwrite_r
                0x0000000000000000      0x294 /Applications/Simplicity Studio.app/Contents/Eclipse/developer/toolchains/gnu_arm/10.3_2021.10/bin/../lib/gcc/arm-none-eabi/10.3.1/../../../../arm-none-eabi/lib/thumb/v8-m.main+fp/hard/libc_nano.a(lib_a-fvwrite.o)
 .debug_frame   0x0000000000000000       0x3c /Applications/Simplicity Studio.app/Contents/Eclipse/developer/toolchains/gnu_arm/10.3_2021.10/bin/../lib/gcc/arm-none-eabi/10.3.1/../../../../arm-none-eabi/lib/thumb/v8-m.main+fp/hard/libc_nano.a(lib_a-fvwrite.o)
 .ARM.attributes
                0x0000000000000000       0x38 /Applications/Simplicity Studio.app/Contents/Eclipse/developer/toolchains/gnu_arm/10.3_2021.10/bin/../lib/gcc/arm-none-eabi/10.3.1/../../../../arm-none-eabi/lib/thumb/v8-m.main+fp/hard/libc_nano.a(lib_a-fvwrite.o)
 .text          0x0000000000000000        0x0 /Applications/Simplicity Studio.app/Contents/Eclipse/developer/toolchains/gnu_arm/10.3_2021.10/bin/../lib/gcc/arm-none-eabi/10.3.1/../../../../arm-none-eabi/lib/thumb/v8-m.main+fp/hard/libc_nano.a(lib_a-isattyr.o)
 .data          0x0000000000000000        0x0 /Applications/Simplicity Studio.app/Contents/Eclipse/developer/toolchains/gnu_arm/10.3_2021.10/bin/../lib/gcc/arm-none-eabi/10.3.1/../../../../arm-none-eabi/lib/thumb/v8-m.main+fp/hard/libc_nano.a(lib_a-isattyr.o)
 .bss           0x0000000000000000        0x0 /Applications/Simplicity Studio.app/Contents/Eclipse/developer/toolchains/gnu_arm/10.3_2021.10/bin/../lib/gcc/arm-none-eabi/10.3.1/../../../../arm-none-eabi/lib/thumb/v8-m.main+fp/hard/libc_nano.a(lib_a-isattyr.o)
 .text          0x0000000000000000        0x0 /Applications/Simplicity Studio.app/Contents/Eclipse/developer/toolchains/gnu_arm/10.3_2021.10/bin/../lib/gcc/arm-none-eabi/10.3.1/../../../../arm-none-eabi/lib/thumb/v8-m.main+fp/hard/libc_nano.a(lib_a-lseekr.o)
 .data          0x0000000000000000        0x0 /Applications/Simplicity Studio.app/Contents/Eclipse/developer/toolchains/gnu_arm/10.3_2021.10/bin/../lib/gcc/arm-none-eabi/10.3.1/../../../../arm-none-eabi/lib/thumb/v8-m.main+fp/hard/libc_nano.a(lib_a-lseekr.o)
 .bss           0x0000000000000000        0x0 /Applications/Simplicity Studio.app/Contents/Eclipse/developer/toolchains/gnu_arm/10.3_2021.10/bin/../lib/gcc/arm-none-eabi/10.3.1/../../../../arm-none-eabi/lib/thumb/v8-m.main+fp/hard/libc_nano.a(lib_a-lseekr.o)
 .text          0x0000000000000000        0x0 /Applications/Simplicity Studio.app/Contents/Eclipse/developer/toolchains/gnu_arm/10.3_2021.10/bin/../lib/gcc/arm-none-eabi/10.3.1/../../../../arm-none-eabi/lib/thumb/v8-m.main+fp/hard/libc_nano.a(lib_a-memchr-stub.o)
 .data          0x0000000000000000        0x0 /Applications/Simplicity Studio.app/Contents/Eclipse/developer/toolchains/gnu_arm/10.3_2021.10/bin/../lib/gcc/arm-none-eabi/10.3.1/../../../../arm-none-eabi/lib/thumb/v8-m.main+fp/hard/libc_nano.a(lib_a-memchr-stub.o)
 .bss           0x0000000000000000        0x0 /Applications/Simplicity Studio.app/Contents/Eclipse/developer/toolchains/gnu_arm/10.3_2021.10/bin/../lib/gcc/arm-none-eabi/10.3.1/../../../../arm-none-eabi/lib/thumb/v8-m.main+fp/hard/libc_nano.a(lib_a-memchr-stub.o)
 .text          0x0000000000000000        0x0 /Applications/Simplicity Studio.app/Contents/Eclipse/developer/toolchains/gnu_arm/10.3_2021.10/bin/../lib/gcc/arm-none-eabi/10.3.1/../../../../arm-none-eabi/lib/thumb/v8-m.main+fp/hard/libc_nano.a(lib_a-mlock.o)
 .data          0x0000000000000000        0x0 /Applications/Simplicity Studio.app/Contents/Eclipse/developer/toolchains/gnu_arm/10.3_2021.10/bin/../lib/gcc/arm-none-eabi/10.3.1/../../../../arm-none-eabi/lib/thumb/v8-m.main+fp/hard/libc_nano.a(lib_a-mlock.o)
 .bss           0x0000000000000000        0x0 /Applications/Simplicity Studio.app/Contents/Eclipse/developer/toolchains/gnu_arm/10.3_2021.10/bin/../lib/gcc/arm-none-eabi/10.3.1/../../../../arm-none-eabi/lib/thumb/v8-m.main+fp/hard/libc_nano.a(lib_a-mlock.o)
 .text          0x0000000000000000        0x0 /Applications/Simplicity Studio.app/Contents/Eclipse/developer/toolchains/gnu_arm/10.3_2021.10/bin/../lib/gcc/arm-none-eabi/10.3.1/../../../../arm-none-eabi/lib/thumb/v8-m.main+fp/hard/libc_nano.a(lib_a-nano-reallocr.o)
 .data          0x0000000000000000        0x0 /Applications/Simplicity Studio.app/Contents/Eclipse/developer/toolchains/gnu_arm/10.3_2021.10/bin/../lib/gcc/arm-none-eabi/10.3.1/../../../../arm-none-eabi/lib/thumb/v8-m.main+fp/hard/libc_nano.a(lib_a-nano-reallocr.o)
 .bss           0x0000000000000000        0x0 /Applications/Simplicity Studio.app/Contents/Eclipse/developer/toolchains/gnu_arm/10.3_2021.10/bin/../lib/gcc/arm-none-eabi/10.3.1/../../../../arm-none-eabi/lib/thumb/v8-m.main+fp/hard/libc_nano.a(lib_a-nano-reallocr.o)
 .text._realloc_r
                0x0000000000000000       0x5e /Applications/Simplicity Studio.app/Contents/Eclipse/developer/toolchains/gnu_arm/10.3_2021.10/bin/../lib/gcc/arm-none-eabi/10.3.1/../../../../arm-none-eabi/lib/thumb/v8-m.main+fp/hard/libc_nano.a(lib_a-nano-reallocr.o)
 .debug_frame   0x0000000000000000       0x3c /Applications/Simplicity Studio.app/Contents/Eclipse/developer/toolchains/gnu_arm/10.3_2021.10/bin/../lib/gcc/arm-none-eabi/10.3.1/../../../../arm-none-eabi/lib/thumb/v8-m.main+fp/hard/libc_nano.a(lib_a-nano-reallocr.o)
 .ARM.attributes
                0x0000000000000000       0x38 /Applications/Simplicity Studio.app/Contents/Eclipse/developer/toolchains/gnu_arm/10.3_2021.10/bin/../lib/gcc/arm-none-eabi/10.3.1/../../../../arm-none-eabi/lib/thumb/v8-m.main+fp/hard/libc_nano.a(lib_a-nano-reallocr.o)
 .text          0x0000000000000000        0x0 /Applications/Simplicity Studio.app/Contents/Eclipse/developer/toolchains/gnu_arm/10.3_2021.10/bin/../lib/gcc/arm-none-eabi/10.3.1/../../../../arm-none-eabi/lib/thumb/v8-m.main+fp/hard/libc_nano.a(lib_a-readr.o)
 .data          0x0000000000000000        0x0 /Applications/Simplicity Studio.app/Contents/Eclipse/developer/toolchains/gnu_arm/10.3_2021.10/bin/../lib/gcc/arm-none-eabi/10.3.1/../../../../arm-none-eabi/lib/thumb/v8-m.main+fp/hard/libc_nano.a(lib_a-readr.o)
 .bss           0x0000000000000000        0x0 /Applications/Simplicity Studio.app/Contents/Eclipse/developer/toolchains/gnu_arm/10.3_2021.10/bin/../lib/gcc/arm-none-eabi/10.3.1/../../../../arm-none-eabi/lib/thumb/v8-m.main+fp/hard/libc_nano.a(lib_a-readr.o)
 .text          0x0000000000000000        0x0 /Applications/Simplicity Studio.app/Contents/Eclipse/developer/toolchains/gnu_arm/10.3_2021.10/bin/../lib/gcc/arm-none-eabi/10.3.1/../../../../arm-none-eabi/lib/thumb/v8-m.main+fp/hard/libc_nano.a(lib_a-reent.o)
 .data          0x0000000000000000        0x0 /Applications/Simplicity Studio.app/Contents/Eclipse/developer/toolchains/gnu_arm/10.3_2021.10/bin/../lib/gcc/arm-none-eabi/10.3.1/../../../../arm-none-eabi/lib/thumb/v8-m.main+fp/hard/libc_nano.a(lib_a-reent.o)
 .bss           0x0000000000000000        0x0 /Applications/Simplicity Studio.app/Contents/Eclipse/developer/toolchains/gnu_arm/10.3_2021.10/bin/../lib/gcc/arm-none-eabi/10.3.1/../../../../arm-none-eabi/lib/thumb/v8-m.main+fp/hard/libc_nano.a(lib_a-reent.o)
 .text.cleanup_glue
                0x0000000000000000       0x1a /Applications/Simplicity Studio.app/Contents/Eclipse/developer/toolchains/gnu_arm/10.3_2021.10/bin/../lib/gcc/arm-none-eabi/10.3.1/../../../../arm-none-eabi/lib/thumb/v8-m.main+fp/hard/libc_nano.a(lib_a-reent.o)
 .text._reclaim_reent
                0x0000000000000000       0xb8 /Applications/Simplicity Studio.app/Contents/Eclipse/developer/toolchains/gnu_arm/10.3_2021.10/bin/../lib/gcc/arm-none-eabi/10.3.1/../../../../arm-none-eabi/lib/thumb/v8-m.main+fp/hard/libc_nano.a(lib_a-reent.o)
 .text          0x0000000000000000        0x0 /Applications/Simplicity Studio.app/Contents/Eclipse/developer/toolchains/gnu_arm/10.3_2021.10/bin/../lib/gcc/arm-none-eabi/10.3.1/../../../../arm-none-eabi/lib/thumb/v8-m.main+fp/hard/libc_nano.a(lib_a-nano-msizer.o)
 .data          0x0000000000000000        0x0 /Applications/Simplicity Studio.app/Contents/Eclipse/developer/toolchains/gnu_arm/10.3_2021.10/bin/../lib/gcc/arm-none-eabi/10.3.1/../../../../arm-none-eabi/lib/thumb/v8-m.main+fp/hard/libc_nano.a(lib_a-nano-msizer.o)
 .bss           0x0000000000000000        0x0 /Applications/Simplicity Studio.app/Contents/Eclipse/developer/toolchains/gnu_arm/10.3_2021.10/bin/../lib/gcc/arm-none-eabi/10.3.1/../../../../arm-none-eabi/lib/thumb/v8-m.main+fp/hard/libc_nano.a(lib_a-nano-msizer.o)
 .text._malloc_usable_size_r
                0x0000000000000000       0x10 /Applications/Simplicity Studio.app/Contents/Eclipse/developer/toolchains/gnu_arm/10.3_2021.10/bin/../lib/gcc/arm-none-eabi/10.3.1/../../../../arm-none-eabi/lib/thumb/v8-m.main+fp/hard/libc_nano.a(lib_a-nano-msizer.o)
 .debug_frame   0x0000000000000000       0x20 /Applications/Simplicity Studio.app/Contents/Eclipse/developer/toolchains/gnu_arm/10.3_2021.10/bin/../lib/gcc/arm-none-eabi/10.3.1/../../../../arm-none-eabi/lib/thumb/v8-m.main+fp/hard/libc_nano.a(lib_a-nano-msizer.o)
 .ARM.attributes
                0x0000000000000000       0x38 /Applications/Simplicity Studio.app/Contents/Eclipse/developer/toolchains/gnu_arm/10.3_2021.10/bin/../lib/gcc/arm-none-eabi/10.3.1/../../../../arm-none-eabi/lib/thumb/v8-m.main+fp/hard/libc_nano.a(lib_a-nano-msizer.o)
 .text          0x0000000000000000        0x0 gecko_sdk_4.3.1/platform/emdrv/nvm3/lib/libnvm3_CM33_gcc.a(nvm3.o)
 .data          0x0000000000000000        0x0 gecko_sdk_4.3.1/platform/emdrv/nvm3/lib/libnvm3_CM33_gcc.a(nvm3.o)
 .bss           0x0000000000000000        0x0 gecko_sdk_4.3.1/platform/emdrv/nvm3/lib/libnvm3_CM33_gcc.a(nvm3.o)
 .text.nvm3_close
                0x0000000000000000       0x3c gecko_sdk_4.3.1/platform/emdrv/nvm3/lib/libnvm3_CM33_gcc.a(nvm3.o)
 .text.nvm3_readPartialData
                0x0000000000000000       0xa8 gecko_sdk_4.3.1/platform/emdrv/nvm3/lib/libnvm3_CM33_gcc.a(nvm3.o)
 .text.nvm3_getEraseCount
                0x0000000000000000       0x50 gecko_sdk_4.3.1/platform/emdrv/nvm3/lib/libnvm3_CM33_gcc.a(nvm3.o)
 .text.nvm3_setEraseCount
                0x0000000000000000        0xc gecko_sdk_4.3.1/platform/emdrv/nvm3/lib/libnvm3_CM33_gcc.a(nvm3.o)
 .text.nvm3_resize
                0x0000000000000000      0x194 gecko_sdk_4.3.1/platform/emdrv/nvm3/lib/libnvm3_CM33_gcc.a(nvm3.o)
 .text          0x0000000000000000        0x0 gecko_sdk_4.3.1/platform/emdrv/nvm3/lib/libnvm3_CM33_gcc.a(nvm3_cache.o)
 .data          0x0000000000000000        0x0 gecko_sdk_4.3.1/platform/emdrv/nvm3/lib/libnvm3_CM33_gcc.a(nvm3_cache.o)
 .bss           0x0000000000000000        0x0 gecko_sdk_4.3.1/platform/emdrv/nvm3/lib/libnvm3_CM33_gcc.a(nvm3_cache.o)
 .text          0x0000000000000000        0x0 gecko_sdk_4.3.1/platform/emdrv/nvm3/lib/libnvm3_CM33_gcc.a(nvm3_object.o)
 .data          0x0000000000000000        0x0 gecko_sdk_4.3.1/platform/emdrv/nvm3/lib/libnvm3_CM33_gcc.a(nvm3_object.o)
 .bss           0x0000000000000000        0x0 gecko_sdk_4.3.1/platform/emdrv/nvm3/lib/libnvm3_CM33_gcc.a(nvm3_object.o)
 .text.nvm3_objHdrLen
                0x0000000000000000        0xa gecko_sdk_4.3.1/platform/emdrv/nvm3/lib/libnvm3_CM33_gcc.a(nvm3_object.o)
 .text          0x0000000000000000        0x0 gecko_sdk_4.3.1/platform/emdrv/nvm3/lib/libnvm3_CM33_gcc.a(nvm3_utils.o)
 .data          0x0000000000000000        0x0 gecko_sdk_4.3.1/platform/emdrv/nvm3/lib/libnvm3_CM33_gcc.a(nvm3_utils.o)
 .bss           0x0000000000000000        0x0 gecko_sdk_4.3.1/platform/emdrv/nvm3/lib/libnvm3_CM33_gcc.a(nvm3_utils.o)
 .text          0x0000000000000000        0x0 gecko_sdk_4.3.1/platform/emdrv/nvm3/lib/libnvm3_CM33_gcc.a(nvm3_page.o)
 .data          0x0000000000000000        0x0 gecko_sdk_4.3.1/platform/emdrv/nvm3/lib/libnvm3_CM33_gcc.a(nvm3_page.o)
 .bss           0x0000000000000000        0x0 gecko_sdk_4.3.1/platform/emdrv/nvm3/lib/libnvm3_CM33_gcc.a(nvm3_page.o)
 .text          0x0000000000000000        0x0 /Applications/Simplicity Studio.app/Contents/Eclipse/developer/toolchains/gnu_arm/10.3_2021.10/bin/../lib/gcc/arm-none-eabi/10.3.1/thumb/v8-m.main+fp/hard/crtend.o
 .data          0x0000000000000000        0x0 /Applications/Simplicity Studio.app/Contents/Eclipse/developer/toolchains/gnu_arm/10.3_2021.10/bin/../lib/gcc/arm-none-eabi/10.3.1/thumb/v8-m.main+fp/hard/crtend.o
 .bss           0x0000000000000000        0x0 /Applications/Simplicity Studio.app/Contents/Eclipse/developer/toolchains/gnu_arm/10.3_2021.10/bin/../lib/gcc/arm-none-eabi/10.3.1/thumb/v8-m.main+fp/hard/crtend.o
 .rodata        0x0000000000000000       0x24 /Applications/Simplicity Studio.app/Contents/Eclipse/developer/toolchains/gnu_arm/10.3_2021.10/bin/../lib/gcc/arm-none-eabi/10.3.1/thumb/v8-m.main+fp/hard/crtend.o
 .eh_frame      0x0000000000000000        0x4 /Applications/Simplicity Studio.app/Contents/Eclipse/developer/toolchains/gnu_arm/10.3_2021.10/bin/../lib/gcc/arm-none-eabi/10.3.1/thumb/v8-m.main+fp/hard/crtend.o
 .ARM.attributes
                0x0000000000000000       0x38 /Applications/Simplicity Studio.app/Contents/Eclipse/developer/toolchains/gnu_arm/10.3_2021.10/bin/../lib/gcc/arm-none-eabi/10.3.1/thumb/v8-m.main+fp/hard/crtend.o
 .text          0x0000000000000000        0x0 /Applications/Simplicity Studio.app/Contents/Eclipse/developer/toolchains/gnu_arm/10.3_2021.10/bin/../lib/gcc/arm-none-eabi/10.3.1/thumb/v8-m.main+fp/hard/crtn.o
 .data          0x0000000000000000        0x0 /Applications/Simplicity Studio.app/Contents/Eclipse/developer/toolchains/gnu_arm/10.3_2021.10/bin/../lib/gcc/arm-none-eabi/10.3.1/thumb/v8-m.main+fp/hard/crtn.o
 .bss           0x0000000000000000        0x0 /Applications/Simplicity Studio.app/Contents/Eclipse/developer/toolchains/gnu_arm/10.3_2021.10/bin/../lib/gcc/arm-none-eabi/10.3.1/thumb/v8-m.main+fp/hard/crtn.o

Memory Configuration

Name             Origin             Length             Attributes
FLASH            0x0000000008000000 0x000000000007e000 xr
RAM              0x0000000020000000 0x0000000000010000 xrw
*default*        0x0000000000000000 0xffffffffffffffff

Linker script and memory map

LOAD /Applications/Simplicity Studio.app/Contents/Eclipse/developer/toolchains/gnu_arm/10.3_2021.10/bin/../lib/gcc/arm-none-eabi/10.3.1/thumb/v8-m.main+fp/hard/crti.o
LOAD /Applications/Simplicity Studio.app/Contents/Eclipse/developer/toolchains/gnu_arm/10.3_2021.10/bin/../lib/gcc/arm-none-eabi/10.3.1/thumb/v8-m.main+fp/hard/crtbegin.o
LOAD /Applications/Simplicity Studio.app/Contents/Eclipse/developer/toolchains/gnu_arm/10.3_2021.10/bin/../lib/gcc/arm-none-eabi/10.3.1/../../../../arm-none-eabi/lib/thumb/v8-m.main+fp/hard/crt0.o
LOAD vscode-build/obj/gecko_sdk_4.3.1/platform/service/udelay/src/sl_udelay_armv6m_gcc.o
LOAD vscode-build/obj/app.o
LOAD vscode-build/obj/autogen/sl_board_default_init.o
LOAD vscode-build/obj/autogen/sl_cli_command_table.o
LOAD vscode-build/obj/autogen/sl_cli_instances.o
LOAD vscode-build/obj/autogen/sl_device_init_clocks.o
LOAD vscode-build/obj/autogen/sl_event_handler.o
LOAD vscode-build/obj/autogen/sl_iostream_handles.o
LOAD vscode-build/obj/autogen/sl_iostream_init_eusart_instances.o
LOAD vscode-build/obj/autogen/sli_cli_hooks.o
LOAD vscode-build/obj/gecko_sdk_4.3.1/hardware/board/src/sl_board_control_gpio.o
LOAD vscode-build/obj/gecko_sdk_4.3.1/hardware/board/src/sl_board_init.o
LOAD vscode-build/obj/gecko_sdk_4.3.1/hardware/driver/configuration_over_swo/src/sl_cos.o
LOAD vscode-build/obj/gecko_sdk_4.3.1/hardware/driver/mx25_flash_shutdown/src/sl_mx25_flash_shutdown_usart/sl_mx25_flash_shutdown.o
LOAD vscode-build/obj/gecko_sdk_4.3.1/platform/Device/SiliconLabs/EFR32ZG23/Source/startup_efr32zg23.o
LOAD vscode-build/obj/gecko_sdk_4.3.1/platform/Device/SiliconLabs/EFR32ZG23/Source/system_efr32zg23.o
LOAD vscode-build/obj/gecko_sdk_4.3.1/platform/common/src/sl_assert.o
LOAD vscode-build/obj/gecko_sdk_4.3.1/platform/common/src/sl_slist.o
LOAD vscode-build/obj/gecko_sdk_4.3.1/platform/common/src/sl_string.o
LOAD vscode-build/obj/gecko_sdk_4.3.1/platform/common/toolchain/src/sl_memory.o
LOAD vscode-build/obj/gecko_sdk_4.3.1/platform/driver/debug/src/sl_debug_swo.o
LOAD vscode-build/obj/gecko_sdk_4.3.1/platform/emdrv/dmadrv/src/dmadrv.o
LOAD vscode-build/obj/gecko_sdk_4.3.1/platform/emdrv/nvm3/src/nvm3_default_common_linker.o
LOAD vscode-build/obj/gecko_sdk_4.3.1/platform/emdrv/nvm3/src/nvm3_hal_flash.o
LOAD vscode-build/obj/gecko_sdk_4.3.1/platform/emdrv/nvm3/src/nvm3_lock.o
LOAD vscode-build/obj/gecko_sdk_4.3.1/platform/emlib/src/em_cmu.o
LOAD vscode-build/obj/gecko_sdk_4.3.1/platform/emlib/src/em_core.o
LOAD vscode-build/obj/gecko_sdk_4.3.1/platform/emlib/src/em_emu.o
LOAD vscode-build/obj/gecko_sdk_4.3.1/platform/emlib/src/em_eusart.o
LOAD vscode-build/obj/gecko_sdk_4.3.1/platform/emlib/src/em_gpio.o
LOAD vscode-build/obj/gecko_sdk_4.3.1/platform/emlib/src/em_ldma.o
LOAD vscode-build/obj/gecko_sdk_4.3.1/platform/emlib/src/em_msc.o
LOAD vscode-build/obj/gecko_sdk_4.3.1/platform/emlib/src/em_system.o
LOAD vscode-build/obj/gecko_sdk_4.3.1/platform/emlib/src/em_usart.o
LOAD vscode-build/obj/gecko_sdk_4.3.1/platform/service/cli/src/sl_cli.o
LOAD vscode-build/obj/gecko_sdk_4.3.1/platform/service/cli/src/sl_cli_arguments.o
LOAD vscode-build/obj/gecko_sdk_4.3.1/platform/service/cli/src/sl_cli_command.o
LOAD vscode-build/obj/gecko_sdk_4.3.1/platform/service/cli/src/sl_cli_input.o
LOAD vscode-build/obj/gecko_sdk_4.3.1/platform/service/cli/src/sl_cli_io.o
LOAD vscode-build/obj/gecko_sdk_4.3.1/platform/service/cli/src/sl_cli_tokenize.o
LOAD vscode-build/obj/gecko_sdk_4.3.1/platform/service/device_init/src/sl_device_init_dcdc_s2.o
LOAD vscode-build/obj/gecko_sdk_4.3.1/platform/service/device_init/src/sl_device_init_emu_s2.o
LOAD vscode-build/obj/gecko_sdk_4.3.1/platform/service/device_init/src/sl_device_init_hfxo_s2.o
LOAD vscode-build/obj/gecko_sdk_4.3.1/platform/service/device_init/src/sl_device_init_lfxo_s2.o
LOAD vscode-build/obj/gecko_sdk_4.3.1/platform/service/device_init/src/sl_device_init_nvic.o
LOAD vscode-build/obj/gecko_sdk_4.3.1/platform/service/iostream/src/sl_iostream.o
LOAD vscode-build/obj/gecko_sdk_4.3.1/platform/service/iostream/src/sl_iostream_eusart.o
LOAD vscode-build/obj/gecko_sdk_4.3.1/platform/service/iostream/src/sl_iostream_retarget_stdio.o
LOAD vscode-build/obj/gecko_sdk_4.3.1/platform/service/iostream/src/sl_iostream_stdlib_config.o
LOAD vscode-build/obj/gecko_sdk_4.3.1/platform/service/iostream/src/sl_iostream_uart.o
LOAD vscode-build/obj/gecko_sdk_4.3.1/platform/service/system/src/sl_system_init.o
LOAD vscode-build/obj/gecko_sdk_4.3.1/platform/service/system/src/sl_system_process_action.o
LOAD vscode-build/obj/gecko_sdk_4.3.1/platform/service/udelay/src/sl_udelay.o
LOAD vscode-build/obj/main.o
LOAD vscode-build/obj/nvm3_app.o
START GROUP
LOAD /Applications/Simplicity Studio.app/Contents/Eclipse/developer/toolchains/gnu_arm/10.3_2021.10/bin/../lib/gcc/arm-none-eabi/10.3.1/thumb/v8-m.main+fp/hard/libgcc.a
LOAD /Applications/Simplicity Studio.app/Contents/Eclipse/developer/toolchains/gnu_arm/10.3_2021.10/bin/../lib/gcc/arm-none-eabi/10.3.1/../../../../arm-none-eabi/lib/thumb/v8-m.main+fp/hard/libc_nano.a
LOAD /Applications/Simplicity Studio.app/Contents/Eclipse/developer/toolchains/gnu_arm/10.3_2021.10/bin/../lib/gcc/arm-none-eabi/10.3.1/../../../../arm-none-eabi/lib/thumb/v8-m.main+fp/hard/libm.a
LOAD /Applications/Simplicity Studio.app/Contents/Eclipse/developer/toolchains/gnu_arm/10.3_2021.10/bin/../lib/gcc/arm-none-eabi/10.3.1/../../../../arm-none-eabi/lib/thumb/v8-m.main+fp/hard/libnosys.a
LOAD gecko_sdk_4.3.1/platform/emdrv/nvm3/lib/libnvm3_CM33_gcc.a
END GROUP
START GROUP
LOAD /Applications/Simplicity Studio.app/Contents/Eclipse/developer/toolchains/gnu_arm/10.3_2021.10/bin/../lib/gcc/arm-none-eabi/10.3.1/thumb/v8-m.main+fp/hard/libgcc.a
LOAD /Applications/Simplicity Studio.app/Contents/Eclipse/developer/toolchains/gnu_arm/10.3_2021.10/bin/../lib/gcc/arm-none-eabi/10.3.1/../../../../arm-none-eabi/lib/thumb/v8-m.main+fp/hard/libc_nano.a
END GROUP
START GROUP
LOAD /Applications/Simplicity Studio.app/Contents/Eclipse/developer/toolchains/gnu_arm/10.3_2021.10/bin/../lib/gcc/arm-none-eabi/10.3.1/thumb/v8-m.main+fp/hard/libgcc.a
LOAD /Applications/Simplicity Studio.app/Contents/Eclipse/developer/toolchains/gnu_arm/10.3_2021.10/bin/../lib/gcc/arm-none-eabi/10.3.1/../../../../arm-none-eabi/lib/thumb/v8-m.main+fp/hard/libc_nano.a
END GROUP
LOAD /Applications/Simplicity Studio.app/Contents/Eclipse/developer/toolchains/gnu_arm/10.3_2021.10/bin/../lib/gcc/arm-none-eabi/10.3.1/thumb/v8-m.main+fp/hard/crtend.o
LOAD /Applications/Simplicity Studio.app/Contents/Eclipse/developer/toolchains/gnu_arm/10.3_2021.10/bin/../lib/gcc/arm-none-eabi/10.3.1/thumb/v8-m.main+fp/hard/crtn.o

.text           0x0000000008000000     0x9810
                0x0000000008000000                linker_vectors_begin = .
 *(.vectors)
 .vectors       0x0000000008000000      0x170 vscode-build/obj/gecko_sdk_4.3.1/platform/Device/SiliconLabs/EFR32ZG23/Source/startup_efr32zg23.o
                0x0000000008000000                __Vectors
                0x0000000008000170                linker_vectors_end = .
                0x0000000008000170                __Vectors_End = .
                0x0000000008000170                __Vectors_Size = (__Vectors_End - __Vectors)
                0x0000000008000170                linker_code_begin = .
 *(SORT_BY_ALIGNMENT(.text*))
 .text          0x0000000008000170        0x8 vscode-build/obj/gecko_sdk_4.3.1/platform/service/udelay/src/sl_udelay_armv6m_gcc.o
                0x0000000008000170                sli_delay_loop
 .text          0x0000000008000178       0x40 /Applications/Simplicity Studio.app/Contents/Eclipse/developer/toolchains/gnu_arm/10.3_2021.10/bin/../lib/gcc/arm-none-eabi/10.3.1/thumb/v8-m.main+fp/hard/crtbegin.o
 .text          0x00000000080001b8       0x7c /Applications/Simplicity Studio.app/Contents/Eclipse/developer/toolchains/gnu_arm/10.3_2021.10/bin/../lib/gcc/arm-none-eabi/10.3.1/../../../../arm-none-eabi/lib/thumb/v8-m.main+fp/hard/crt0.o
                0x00000000080001b8                _stack_init
                0x00000000080001c0                _mainCRTStartup
                0x00000000080001c0                _start
 .text.sl_cli_instances_init
                0x0000000008000234       0x40 vscode-build/obj/autogen/sl_cli_instances.o
                0x0000000008000234                sl_cli_instances_init
 .text.sl_cli_instances_tick
                0x0000000008000274       0x28 vscode-build/obj/autogen/sl_cli_instances.o
                0x0000000008000274                sl_cli_instances_tick
 .text.sl_device_init_clocks
                0x000000000800029c       0xac vscode-build/obj/autogen/sl_device_init_clocks.o
                0x000000000800029c                sl_device_init_clocks
 .text.sl_platform_init
                0x0000000008000348       0x9c vscode-build/obj/autogen/sl_event_handler.o
                0x0000000008000348                sl_platform_init
 .text.sl_iostream_eusart_init_vcom
                0x00000000080003e4       0xb0 vscode-build/obj/autogen/sl_iostream_init_eusart_instances.o
                0x00000000080003e4                sl_iostream_eusart_init_vcom
 .text.EUSART0_RX_IRQHandler
                0x0000000008000494        0xc vscode-build/obj/autogen/sl_iostream_init_eusart_instances.o
                0x0000000008000494                EUSART0_RX_IRQHandler
 .text.cs_high  0x00000000080004a0       0x10 vscode-build/obj/gecko_sdk_4.3.1/hardware/driver/mx25_flash_shutdown/src/sl_mx25_flash_shutdown_usart/sl_mx25_flash_shutdown.o
 .text.cs_low   0x00000000080004b0       0x10 vscode-build/obj/gecko_sdk_4.3.1/hardware/driver/mx25_flash_shutdown/src/sl_mx25_flash_shutdown_usart/sl_mx25_flash_shutdown.o
 .text.sl_mx25_flash_shutdown
                0x00000000080004c0      0x118 vscode-build/obj/gecko_sdk_4.3.1/hardware/driver/mx25_flash_shutdown/src/sl_mx25_flash_shutdown_usart/sl_mx25_flash_shutdown.o
                0x00000000080004c0                sl_mx25_flash_shutdown
 .text.Reset_Handler
                0x00000000080005d8       0x60 vscode-build/obj/gecko_sdk_4.3.1/platform/Device/SiliconLabs/EFR32ZG23/Source/startup_efr32zg23.o
                0x00000000080005d8                Reset_Handler
 .text.SystemInit
                0x0000000008000638       0x68 vscode-build/obj/gecko_sdk_4.3.1/platform/Device/SiliconLabs/EFR32ZG23/Source/system_efr32zg23.o
                0x0000000008000638                SystemInit
 .text.SystemHFRCODPLLClockGet
                0x00000000080006a0        0xc vscode-build/obj/gecko_sdk_4.3.1/platform/Device/SiliconLabs/EFR32ZG23/Source/system_efr32zg23.o
                0x00000000080006a0                SystemHFRCODPLLClockGet
 .text.SystemSYSCLKGet
                0x00000000080006ac       0x34 vscode-build/obj/gecko_sdk_4.3.1/platform/Device/SiliconLabs/EFR32ZG23/Source/system_efr32zg23.o
                0x00000000080006ac                SystemSYSCLKGet
 .text.SystemHCLKGet
                0x00000000080006e0       0x24 vscode-build/obj/gecko_sdk_4.3.1/platform/Device/SiliconLabs/EFR32ZG23/Source/system_efr32zg23.o
                0x00000000080006e0                SystemHCLKGet
 .text.SystemMaxCoreClockGet
                0x0000000008000704        0x8 vscode-build/obj/gecko_sdk_4.3.1/platform/Device/SiliconLabs/EFR32ZG23/Source/system_efr32zg23.o
                0x0000000008000704                SystemMaxCoreClockGet
 .text.SystemHFXOClockGet
                0x000000000800070c        0xc vscode-build/obj/gecko_sdk_4.3.1/platform/Device/SiliconLabs/EFR32ZG23/Source/system_efr32zg23.o
                0x000000000800070c                SystemHFXOClockGet
 .text.SystemHFXOClockSet
                0x0000000008000718       0x20 vscode-build/obj/gecko_sdk_4.3.1/platform/Device/SiliconLabs/EFR32ZG23/Source/system_efr32zg23.o
                0x0000000008000718                SystemHFXOClockSet
 .text.SystemFSRCOClockGet
                0x0000000008000738        0x8 vscode-build/obj/gecko_sdk_4.3.1/platform/Device/SiliconLabs/EFR32ZG23/Source/system_efr32zg23.o
                0x0000000008000738                SystemFSRCOClockGet
 .text.SystemHFRCOEM23ClockGet
                0x0000000008000740       0x84 vscode-build/obj/gecko_sdk_4.3.1/platform/Device/SiliconLabs/EFR32ZG23/Source/system_efr32zg23.o
                0x0000000008000740                SystemHFRCOEM23ClockGet
 .text.SystemLFXOClockGet
                0x00000000080007c4        0xc vscode-build/obj/gecko_sdk_4.3.1/platform/Device/SiliconLabs/EFR32ZG23/Source/system_efr32zg23.o
                0x00000000080007c4                SystemLFXOClockGet
 .text.sl_slist_push
                0x00000000080007d0       0x20 vscode-build/obj/gecko_sdk_4.3.1/platform/common/src/sl_slist.o
                0x00000000080007d0                sl_slist_push
 .text.sl_strcasecmp
                0x00000000080007f0       0x44 vscode-build/obj/gecko_sdk_4.3.1/platform/common/src/sl_string.o
                0x00000000080007f0                sl_strcasecmp
 .text._sbrk    0x0000000008000834       0x20 vscode-build/obj/gecko_sdk_4.3.1/platform/common/toolchain/src/sl_memory.o
                0x0000000008000834                _sbrk
 .text.sl_debug_swo_init
                0x0000000008000854       0xc0 vscode-build/obj/gecko_sdk_4.3.1/platform/driver/debug/src/sl_debug_swo.o
                0x0000000008000854                sl_debug_swo_init
 .text.sl_debug_swo_write_u8
                0x0000000008000914       0x44 vscode-build/obj/gecko_sdk_4.3.1/platform/driver/debug/src/sl_debug_swo.o
                0x0000000008000914                sl_debug_swo_write_u8
 .text.StartTransfer
                0x0000000008000958      0x17c vscode-build/obj/gecko_sdk_4.3.1/platform/emdrv/dmadrv/src/dmadrv.o
 .text.DMADRV_AllocateChannel
                0x0000000008000ad4       0x60 vscode-build/obj/gecko_sdk_4.3.1/platform/emdrv/dmadrv/src/dmadrv.o
                0x0000000008000ad4                DMADRV_AllocateChannel
 .text.DMADRV_DeInit
                0x0000000008000b34       0x44 vscode-build/obj/gecko_sdk_4.3.1/platform/emdrv/dmadrv/src/dmadrv.o
                0x0000000008000b34                DMADRV_DeInit
 .text.DMADRV_FreeChannel
                0x0000000008000b78       0x4c vscode-build/obj/gecko_sdk_4.3.1/platform/emdrv/dmadrv/src/dmadrv.o
                0x0000000008000b78                DMADRV_FreeChannel
 .text.DMADRV_Init
                0x0000000008000bc4       0x68 vscode-build/obj/gecko_sdk_4.3.1/platform/emdrv/dmadrv/src/dmadrv.o
                0x0000000008000bc4                DMADRV_Init
 .text.DMADRV_PauseTransfer
                0x0000000008000c2c       0x40 vscode-build/obj/gecko_sdk_4.3.1/platform/emdrv/dmadrv/src/dmadrv.o
                0x0000000008000c2c                DMADRV_PauseTransfer
 .text.DMADRV_ResumeTransfer
                0x0000000008000c6c       0x40 vscode-build/obj/gecko_sdk_4.3.1/platform/emdrv/dmadrv/src/dmadrv.o
                0x0000000008000c6c                DMADRV_ResumeTransfer
 .text.DMADRV_StopTransfer
                0x0000000008000cac       0x40 vscode-build/obj/gecko_sdk_4.3.1/platform/emdrv/dmadrv/src/dmadrv.o
                0x0000000008000cac                DMADRV_StopTransfer
 .text.DMADRV_TransferCompletePending
                0x0000000008000cec       0x50 vscode-build/obj/gecko_sdk_4.3.1/platform/emdrv/dmadrv/src/dmadrv.o
                0x0000000008000cec                DMADRV_TransferCompletePending
 .text.DMADRV_TransferDone
                0x0000000008000d3c       0x44 vscode-build/obj/gecko_sdk_4.3.1/platform/emdrv/dmadrv/src/dmadrv.o
                0x0000000008000d3c                DMADRV_TransferDone
 .text.LDMA_IRQHandler
                0x0000000008000d80       0x74 vscode-build/obj/gecko_sdk_4.3.1/platform/emdrv/dmadrv/src/dmadrv.o
                0x0000000008000d80                LDMA_IRQHandler
 .text.nvm3_initDefault
                0x0000000008000df4       0x14 vscode-build/obj/gecko_sdk_4.3.1/platform/emdrv/nvm3/src/nvm3_default_common_linker.o
                0x0000000008000df4                nvm3_initDefault
 .text.nvm3_halFlashWriteWords
                0x0000000008000e08       0x40 vscode-build/obj/gecko_sdk_4.3.1/platform/emdrv/nvm3/src/nvm3_hal_flash.o
 .text.nvm3_halFlashPageErase
                0x0000000008000e48       0x44 vscode-build/obj/gecko_sdk_4.3.1/platform/emdrv/nvm3/src/nvm3_hal_flash.o
 .text.nvm3_lockBegin
                0x0000000008000e8c       0x10 vscode-build/obj/gecko_sdk_4.3.1/platform/emdrv/nvm3/src/nvm3_lock.o
                0x0000000008000e8c                nvm3_lockBegin
 .text.nvm3_lockEnd
                0x0000000008000e9c        0xc vscode-build/obj/gecko_sdk_4.3.1/platform/emdrv/nvm3/src/nvm3_lock.o
                0x0000000008000e9c                nvm3_lockEnd
 .text.EMU_VScaleGet
                0x0000000008000ea8       0x18 vscode-build/obj/gecko_sdk_4.3.1/platform/emlib/src/em_cmu.o
 .text.em01GrpaClkGet
                0x0000000008000ec0       0x74 vscode-build/obj/gecko_sdk_4.3.1/platform/emlib/src/em_cmu.o
 .text.em01GrpcClkGet
                0x0000000008000f34       0x70 vscode-build/obj/gecko_sdk_4.3.1/platform/emlib/src/em_cmu.o
 .text.iadcClkGet
                0x0000000008000fa4       0x60 vscode-build/obj/gecko_sdk_4.3.1/platform/emlib/src/em_cmu.o
 .text.lesenseHFClkGet
                0x0000000008001004       0x48 vscode-build/obj/gecko_sdk_4.3.1/platform/emlib/src/em_cmu.o
 .text.eusart0ClkGet
                0x000000000800104c       0x74 vscode-build/obj/gecko_sdk_4.3.1/platform/emlib/src/em_cmu.o
 .text.em23GrpaClkGet
                0x00000000080010c0       0x48 vscode-build/obj/gecko_sdk_4.3.1/platform/emlib/src/em_cmu.o
 .text.vdac0ClkGet
                0x0000000008001108       0x70 vscode-build/obj/gecko_sdk_4.3.1/platform/emlib/src/em_cmu.o
 .text.pcnt0ClkGet
                0x0000000008001178       0x4c vscode-build/obj/gecko_sdk_4.3.1/platform/emlib/src/em_cmu.o
 .text.wdog0ClkGet
                0x00000000080011c4       0x64 vscode-build/obj/gecko_sdk_4.3.1/platform/emlib/src/em_cmu.o
 .text.wdog1ClkGet
                0x0000000008001228       0x64 vscode-build/obj/gecko_sdk_4.3.1/platform/emlib/src/em_cmu.o
 .text.sysrtcClkGet
                0x000000000800128c       0x48 vscode-build/obj/gecko_sdk_4.3.1/platform/emlib/src/em_cmu.o
 .text.lcdClkGet
                0x00000000080012d4       0x54 vscode-build/obj/gecko_sdk_4.3.1/platform/emlib/src/em_cmu.o
 .text.em4GrpaClkGet
                0x0000000008001328       0x48 vscode-build/obj/gecko_sdk_4.3.1/platform/emlib/src/em_cmu.o
 .text.CMU_ClockDivGet
                0x0000000008001370       0x84 vscode-build/obj/gecko_sdk_4.3.1/platform/emlib/src/em_cmu.o
                0x0000000008001370                CMU_ClockDivGet
 .text.flashWaitStateControl
                0x00000000080013f4       0x58 vscode-build/obj/gecko_sdk_4.3.1/platform/emlib/src/em_cmu.o
 .text.CMU_ClockEnable
                0x000000000800144c       0x58 vscode-build/obj/gecko_sdk_4.3.1/platform/emlib/src/em_cmu.o
                0x000000000800144c                CMU_ClockEnable
 .text.CMU_ClockFreqGet
                0x00000000080014a4      0x270 vscode-build/obj/gecko_sdk_4.3.1/platform/emlib/src/em_cmu.o
                0x00000000080014a4                CMU_ClockFreqGet
 .text.rhclkPrescOptimize
                0x0000000008001714       0x20 vscode-build/obj/gecko_sdk_4.3.1/platform/emlib/src/em_cmu.o
 .text.CMU_ClockSelectGet
                0x0000000008001734      0x268 vscode-build/obj/gecko_sdk_4.3.1/platform/emlib/src/em_cmu.o
                0x0000000008001734                CMU_ClockSelectGet
 .text.sli_em_cmu_HFXOSetForceEnable
                0x000000000800199c       0x1c vscode-build/obj/gecko_sdk_4.3.1/platform/emlib/src/em_cmu.o
                0x000000000800199c                sli_em_cmu_HFXOSetForceEnable
 .text.CMU_HFXOInit
                0x00000000080019b8      0x23c vscode-build/obj/gecko_sdk_4.3.1/platform/emlib/src/em_cmu.o
                0x00000000080019b8                CMU_HFXOInit
 .text.CMU_HFXOCTuneDeltaGet
                0x0000000008001bf4        0xc vscode-build/obj/gecko_sdk_4.3.1/platform/emlib/src/em_cmu.o
                0x0000000008001bf4                CMU_HFXOCTuneDeltaGet
 .text.CMU_LFXOInit
                0x0000000008001c00       0xc4 vscode-build/obj/gecko_sdk_4.3.1/platform/emlib/src/em_cmu.o
                0x0000000008001c00                CMU_LFXOInit
 .text.CMU_LFXOPrecisionSet
                0x0000000008001cc4        0xc vscode-build/obj/gecko_sdk_4.3.1/platform/emlib/src/em_cmu.o
                0x0000000008001cc4                CMU_LFXOPrecisionSet
 .text.CMU_HFXOPrecisionSet
                0x0000000008001cd0        0xc vscode-build/obj/gecko_sdk_4.3.1/platform/emlib/src/em_cmu.o
                0x0000000008001cd0                CMU_HFXOPrecisionSet
 .text.CMU_ClockDivSet
                0x0000000008001cdc      0x104 vscode-build/obj/gecko_sdk_4.3.1/platform/emlib/src/em_cmu.o
                0x0000000008001cdc                CMU_ClockDivSet
 .text.sli_em_cmu_SYSCLKInitPreClockSelect
                0x0000000008001de0       0x20 vscode-build/obj/gecko_sdk_4.3.1/platform/emlib/src/em_cmu.o
                0x0000000008001de0                sli_em_cmu_SYSCLKInitPreClockSelect
 .text.pclkDivOptimize
                0x0000000008001e00       0x24 vscode-build/obj/gecko_sdk_4.3.1/platform/emlib/src/em_cmu.o
 .text.EMU_DCDCSync
                0x0000000008001e24       0x10 vscode-build/obj/gecko_sdk_4.3.1/platform/emlib/src/em_emu.o
 .text.EMU_EM4Init
                0x0000000008001e34       0x14 vscode-build/obj/gecko_sdk_4.3.1/platform/emlib/src/em_emu.o
                0x0000000008001e34                EMU_EM4Init
 .text.EMU_VScaleEM01
                0x0000000008001e48       0xb0 vscode-build/obj/gecko_sdk_4.3.1/platform/emlib/src/em_emu.o
                0x0000000008001e48                EMU_VScaleEM01
 .text.EMU_VScaleEM01ByClock
                0x0000000008001ef8       0x30 vscode-build/obj/gecko_sdk_4.3.1/platform/emlib/src/em_emu.o
                0x0000000008001ef8                EMU_VScaleEM01ByClock
 .text.EMU_DCDCModeSet
                0x0000000008001f28       0xac vscode-build/obj/gecko_sdk_4.3.1/platform/emlib/src/em_emu.o
                0x0000000008001f28                EMU_DCDCModeSet
 .text.EMU_DCDCInit
                0x0000000008001fd4       0x70 vscode-build/obj/gecko_sdk_4.3.1/platform/emlib/src/em_emu.o
                0x0000000008001fd4                EMU_DCDCInit
 .text.EMU_DCDCSetPFMXModePeakCurrent
                0x0000000008002044       0x70 vscode-build/obj/gecko_sdk_4.3.1/platform/emlib/src/em_emu.o
                0x0000000008002044                EMU_DCDCSetPFMXModePeakCurrent
 .text.EUSART_Reset
                0x00000000080020b4       0x50 vscode-build/obj/gecko_sdk_4.3.1/platform/emlib/src/em_eusart.o
                0x00000000080020b4                EUSART_Reset
 .text.EUSART_Enable
                0x0000000008002104       0x74 vscode-build/obj/gecko_sdk_4.3.1/platform/emlib/src/em_eusart.o
                0x0000000008002104                EUSART_Enable
 .text.EUSART_BaudrateSet
                0x0000000008002178      0x1e4 vscode-build/obj/gecko_sdk_4.3.1/platform/emlib/src/em_eusart.o
                0x0000000008002178                EUSART_BaudrateSet
 .text.EUSART_AsyncInitCommon.constprop.0
                0x000000000800235c      0x1dc vscode-build/obj/gecko_sdk_4.3.1/platform/emlib/src/em_eusart.o
 .text.EUSART_UartInitLf
                0x0000000008002538       0xb4 vscode-build/obj/gecko_sdk_4.3.1/platform/emlib/src/em_eusart.o
                0x0000000008002538                EUSART_UartInitLf
 .text.EUSART_UartInitHf
                0x00000000080025ec       0x64 vscode-build/obj/gecko_sdk_4.3.1/platform/emlib/src/em_eusart.o
                0x00000000080025ec                EUSART_UartInitHf
 .text.GPIO_PinOutSet
                0x0000000008002650       0x50 vscode-build/obj/gecko_sdk_4.3.1/platform/emlib/src/em_gpio.o
 .text.GPIO_PinOutClear
                0x00000000080026a0       0x50 vscode-build/obj/gecko_sdk_4.3.1/platform/emlib/src/em_gpio.o
 .text.GPIO_PinModeSet
                0x00000000080026f0       0xa8 vscode-build/obj/gecko_sdk_4.3.1/platform/emlib/src/em_gpio.o
                0x00000000080026f0                GPIO_PinModeSet
 .text.LDMA_DeInit
                0x0000000008002798       0x3c vscode-build/obj/gecko_sdk_4.3.1/platform/emlib/src/em_ldma.o
                0x0000000008002798                LDMA_DeInit
 .text.LDMA_EnableChannelRequest
                0x00000000080027d4       0x44 vscode-build/obj/gecko_sdk_4.3.1/platform/emlib/src/em_ldma.o
                0x00000000080027d4                LDMA_EnableChannelRequest
 .text.LDMA_Init
                0x0000000008002818       0x94 vscode-build/obj/gecko_sdk_4.3.1/platform/emlib/src/em_ldma.o
                0x0000000008002818                LDMA_Init
 .text.LDMA_StartTransfer
                0x00000000080028ac      0x104 vscode-build/obj/gecko_sdk_4.3.1/platform/emlib/src/em_ldma.o
                0x00000000080028ac                LDMA_StartTransfer
 .text.LDMA_StopTransfer
                0x00000000080029b0       0x38 vscode-build/obj/gecko_sdk_4.3.1/platform/emlib/src/em_ldma.o
                0x00000000080029b0                LDMA_StopTransfer
 .text.LDMA_TransferDone
                0x00000000080029e8       0x44 vscode-build/obj/gecko_sdk_4.3.1/platform/emlib/src/em_ldma.o
                0x00000000080029e8                LDMA_TransferDone
 .text.MSC_Init
                0x0000000008002a2c       0x20 vscode-build/obj/gecko_sdk_4.3.1/platform/emlib/src/em_msc.o
                0x0000000008002a2c                MSC_Init
 .text.MSC_Deinit
                0x0000000008002a4c       0x24 vscode-build/obj/gecko_sdk_4.3.1/platform/emlib/src/em_msc.o
                0x0000000008002a4c                MSC_Deinit
 .text.SYSTEM_ChipRevisionGet
                0x0000000008002a70       0x24 vscode-build/obj/gecko_sdk_4.3.1/platform/emlib/src/em_system.o
                0x0000000008002a70                SYSTEM_ChipRevisionGet
 .text.SYSTEM_GetFlashPageSize
                0x0000000008002a94       0x14 vscode-build/obj/gecko_sdk_4.3.1/platform/emlib/src/em_system.o
                0x0000000008002a94                SYSTEM_GetFlashPageSize
 .text.USART_BaudrateSyncSet
                0x0000000008002aa8       0x48 vscode-build/obj/gecko_sdk_4.3.1/platform/emlib/src/em_usart.o
                0x0000000008002aa8                USART_BaudrateSyncSet
 .text.USART_Reset
                0x0000000008002af0       0x58 vscode-build/obj/gecko_sdk_4.3.1/platform/emlib/src/em_usart.o
                0x0000000008002af0                USART_Reset
 .text.USART_InitSync
                0x0000000008002b48       0xc0 vscode-build/obj/gecko_sdk_4.3.1/platform/emlib/src/em_usart.o
                0x0000000008002b48                USART_InitSync
 .text.sl_cli_clear
                0x0000000008002c08       0x34 vscode-build/obj/gecko_sdk_4.3.1/platform/service/cli/src/sl_cli.o
                0x0000000008002c08                sl_cli_clear
 .text.sl_cli_handle_input
                0x0000000008002c3c       0x40 vscode-build/obj/gecko_sdk_4.3.1/platform/service/cli/src/sl_cli.o
                0x0000000008002c3c                sl_cli_handle_input
 .text.sli_cli_tick
                0x0000000008002c7c       0x88 vscode-build/obj/gecko_sdk_4.3.1/platform/service/cli/src/sl_cli.o
                0x0000000008002c7c                sli_cli_tick
 .text.sli_cli_arguments_validate_uint
                0x0000000008002d04       0xcc vscode-build/obj/gecko_sdk_4.3.1/platform/service/cli/src/sl_cli_arguments.o
                0x0000000008002d04                sli_cli_arguments_validate_uint
 .text.sli_cli_arguments_validate_hex_string
                0x0000000008002dd0       0x40 vscode-build/obj/gecko_sdk_4.3.1/platform/service/cli/src/sl_cli_arguments.o
                0x0000000008002dd0                sli_cli_arguments_validate_hex_string
 .text.print_and_pad
                0x0000000008002e10       0x28 vscode-build/obj/gecko_sdk_4.3.1/platform/service/cli/src/sl_cli_command.o
 .text.cmd_help_command
                0x0000000008002e38      0x1b4 vscode-build/obj/gecko_sdk_4.3.1/platform/service/cli/src/sl_cli_command.o
 .text.sl_cli_command_find_matches
                0x0000000008002fec      0x1c0 vscode-build/obj/gecko_sdk_4.3.1/platform/service/cli/src/sl_cli_command.o
                0x0000000008002fec                sl_cli_command_find_matches
 .text.sl_cli_command_find
                0x00000000080031ac       0x74 vscode-build/obj/gecko_sdk_4.3.1/platform/service/cli/src/sl_cli_command.o
                0x00000000080031ac                sl_cli_command_find
 .text.sl_cli_input_autocomplete
                0x0000000008003220      0x1f8 vscode-build/obj/gecko_sdk_4.3.1/platform/service/cli/src/sl_cli_input.o
                0x0000000008003220                sl_cli_input_autocomplete
 .text.sl_cli_input_char
                0x0000000008003418      0x1d0 vscode-build/obj/gecko_sdk_4.3.1/platform/service/cli/src/sl_cli_input.o
                0x0000000008003418                sl_cli_input_char
 .text.sl_device_init_dcdc
                0x00000000080035e8       0x2c vscode-build/obj/gecko_sdk_4.3.1/platform/service/device_init/src/sl_device_init_dcdc_s2.o
                0x00000000080035e8                sl_device_init_dcdc
 .text.sl_device_init_emu
                0x0000000008003614       0x24 vscode-build/obj/gecko_sdk_4.3.1/platform/service/device_init/src/sl_device_init_emu_s2.o
                0x0000000008003614                sl_device_init_emu
 .text.sl_device_init_hfxo
                0x0000000008003638       0x74 vscode-build/obj/gecko_sdk_4.3.1/platform/service/device_init/src/sl_device_init_hfxo_s2.o
                0x0000000008003638                sl_device_init_hfxo
 .text.sl_device_init_lfxo
                0x00000000080036ac       0x28 vscode-build/obj/gecko_sdk_4.3.1/platform/service/device_init/src/sl_device_init_lfxo_s2.o
                0x00000000080036ac                sl_device_init_lfxo
 .text.sl_device_init_nvic
                0x00000000080036d4       0x3c vscode-build/obj/gecko_sdk_4.3.1/platform/service/device_init/src/sl_device_init_nvic.o
                0x00000000080036d4                sl_device_init_nvic
 .text.sl_iostream_set_default
                0x0000000008003710       0x18 vscode-build/obj/gecko_sdk_4.3.1/platform/service/iostream/src/sl_iostream.o
                0x0000000008003710                sl_iostream_set_default
 .text.sl_iostream_get_default
                0x0000000008003728       0x18 vscode-build/obj/gecko_sdk_4.3.1/platform/service/iostream/src/sl_iostream.o
                0x0000000008003728                sl_iostream_get_default
 .text.sl_iostream_eusart_init
                0x0000000008003740      0x230 vscode-build/obj/gecko_sdk_4.3.1/platform/service/iostream/src/sl_iostream_eusart.o
                0x0000000008003740                sl_iostream_eusart_init
 .text._write   0x0000000008003970       0x1c vscode-build/obj/gecko_sdk_4.3.1/platform/service/iostream/src/sl_iostream_retarget_stdio.o
                0x0000000008003970                _write
 .text.sl_iostream_stdlib_disable_buffering
                0x000000000800398c       0x14 vscode-build/obj/gecko_sdk_4.3.1/platform/service/iostream/src/sl_iostream_stdlib_config.o
                0x000000000800398c                sl_iostream_stdlib_disable_buffering
 .text.get_write_ptr
                0x00000000080039a0       0x40 vscode-build/obj/gecko_sdk_4.3.1/platform/service/iostream/src/sl_iostream_uart.o
 .text.dma_irq_handler
                0x00000000080039e0       0x74 vscode-build/obj/gecko_sdk_4.3.1/platform/service/iostream/src/sl_iostream_uart.o
 .text.uart_read
                0x0000000008003a54      0x1f0 vscode-build/obj/gecko_sdk_4.3.1/platform/service/iostream/src/sl_iostream_uart.o
 .text.uart_deinit
                0x0000000008003c44       0x98 vscode-build/obj/gecko_sdk_4.3.1/platform/service/iostream/src/sl_iostream_uart.o
 .text.uart_write
                0x0000000008003cdc       0xc0 vscode-build/obj/gecko_sdk_4.3.1/platform/service/iostream/src/sl_iostream_uart.o
 .text.sli_iostream_uart_context_init
                0x0000000008003d9c       0xf8 vscode-build/obj/gecko_sdk_4.3.1/platform/service/iostream/src/sl_iostream_uart.o
                0x0000000008003d9c                sli_iostream_uart_context_init
 .text.sl_udelay_wait
                0x0000000008003e94       0x58 vscode-build/obj/gecko_sdk_4.3.1/platform/service/udelay/src/sl_udelay.o
                0x0000000008003e94                sl_udelay_wait
 .text.initialise_counters
                0x0000000008003eec       0x48 vscode-build/obj/nvm3_app.o
 .text.nvm3_app_write
                0x0000000008003f34       0x78 vscode-build/obj/nvm3_app.o
                0x0000000008003f34                nvm3_app_write
 .text.nvm3_app_delete
                0x0000000008003fac       0x58 vscode-build/obj/nvm3_app.o
                0x0000000008003fac                nvm3_app_delete
 .text.nvm3_app_read
                0x0000000008004004       0x84 vscode-build/obj/nvm3_app.o
                0x0000000008004004                nvm3_app_read
 .text.nvm3_app_display
                0x0000000008004088      0x12c vscode-build/obj/nvm3_app.o
                0x0000000008004088                nvm3_app_display
 .text.nvm3_app_reset
                0x00000000080041b4       0x20 vscode-build/obj/nvm3_app.o
                0x00000000080041b4                nvm3_app_reset
 .text.nvm3_app_init
                0x00000000080041d4       0x34 vscode-build/obj/nvm3_app.o
                0x00000000080041d4                nvm3_app_init
 .text.nvm3_app_process_action
                0x0000000008004208       0x28 vscode-build/obj/nvm3_app.o
                0x0000000008004208                nvm3_app_process_action
 .text          0x0000000008004230       0x30 /Applications/Simplicity Studio.app/Contents/Eclipse/developer/toolchains/gnu_arm/10.3_2021.10/bin/../lib/gcc/arm-none-eabi/10.3.1/thumb/v8-m.main+fp/hard/libgcc.a(_aeabi_uldivmod.o)
                0x0000000008004230                __aeabi_uldivmod
 .text          0x0000000008004260      0x2ec /Applications/Simplicity Studio.app/Contents/Eclipse/developer/toolchains/gnu_arm/10.3_2021.10/bin/../lib/gcc/arm-none-eabi/10.3.1/thumb/v8-m.main+fp/hard/libgcc.a(_udivmoddi4.o)
                0x0000000008004260                __udivmoddi4
 .text          0x000000000800454c        0x4 /Applications/Simplicity Studio.app/Contents/Eclipse/developer/toolchains/gnu_arm/10.3_2021.10/bin/../lib/gcc/arm-none-eabi/10.3.1/thumb/v8-m.main+fp/hard/libgcc.a(_dvmd_tls.o)
                0x000000000800454c                __aeabi_ldiv0
                0x000000000800454c                __aeabi_idiv0
 .text.exit     0x0000000008004550       0x28 /Applications/Simplicity Studio.app/Contents/Eclipse/developer/toolchains/gnu_arm/10.3_2021.10/bin/../lib/gcc/arm-none-eabi/10.3.1/../../../../arm-none-eabi/lib/thumb/v8-m.main+fp/hard/libc_nano.a(lib_a-exit.o)
                0x0000000008004550                exit
 .text.__libc_init_array
                0x0000000008004578       0x48 /Applications/Simplicity Studio.app/Contents/Eclipse/developer/toolchains/gnu_arm/10.3_2021.10/bin/../lib/gcc/arm-none-eabi/10.3.1/../../../../arm-none-eabi/lib/thumb/v8-m.main+fp/hard/libc_nano.a(lib_a-init.o)
                0x0000000008004578                __libc_init_array
 .text.printf   0x00000000080045c0       0x30 /Applications/Simplicity Studio.app/Contents/Eclipse/developer/toolchains/gnu_arm/10.3_2021.10/bin/../lib/gcc/arm-none-eabi/10.3.1/../../../../arm-none-eabi/lib/thumb/v8-m.main+fp/hard/libc_nano.a(lib_a-printf.o)
                0x00000000080045c0                printf
                0x00000000080045c0                iprintf
 .text._puts_r  0x00000000080045f0       0xdc /Applications/Simplicity Studio.app/Contents/Eclipse/developer/toolchains/gnu_arm/10.3_2021.10/bin/../lib/gcc/arm-none-eabi/10.3.1/../../../../arm-none-eabi/lib/thumb/v8-m.main+fp/hard/libc_nano.a(lib_a-puts.o)
                0x00000000080045f0                _puts_r
 .text.puts     0x00000000080046cc       0x10 /Applications/Simplicity Studio.app/Contents/Eclipse/developer/toolchains/gnu_arm/10.3_2021.10/bin/../lib/gcc/arm-none-eabi/10.3.1/../../../../arm-none-eabi/lib/thumb/v8-m.main+fp/hard/libc_nano.a(lib_a-puts.o)
                0x00000000080046cc                puts
 .text.setvbuf  0x00000000080046dc      0x188 /Applications/Simplicity Studio.app/Contents/Eclipse/developer/toolchains/gnu_arm/10.3_2021.10/bin/../lib/gcc/arm-none-eabi/10.3.1/../../../../arm-none-eabi/lib/thumb/v8-m.main+fp/hard/libc_nano.a(lib_a-setvbuf.o)
                0x00000000080046dc                setvbuf
 .text._strtol_l.constprop.0
                0x0000000008004864      0x104 /Applications/Simplicity Studio.app/Contents/Eclipse/developer/toolchains/gnu_arm/10.3_2021.10/bin/../lib/gcc/arm-none-eabi/10.3.1/../../../../arm-none-eabi/lib/thumb/v8-m.main+fp/hard/libc_nano.a(lib_a-strtol.o)
 .text.strtol   0x0000000008004968       0x14 /Applications/Simplicity Studio.app/Contents/Eclipse/developer/toolchains/gnu_arm/10.3_2021.10/bin/../lib/gcc/arm-none-eabi/10.3.1/../../../../arm-none-eabi/lib/thumb/v8-m.main+fp/hard/libc_nano.a(lib_a-strtol.o)
                0x0000000008004968                strtol
 .text._strtoll_l.constprop.0
                0x000000000800497c      0x12c /Applications/Simplicity Studio.app/Contents/Eclipse/developer/toolchains/gnu_arm/10.3_2021.10/bin/../lib/gcc/arm-none-eabi/10.3.1/../../../../arm-none-eabi/lib/thumb/v8-m.main+fp/hard/libc_nano.a(lib_a-strtoll.o)
 .text.strtoll  0x0000000008004aa8       0x14 /Applications/Simplicity Studio.app/Contents/Eclipse/developer/toolchains/gnu_arm/10.3_2021.10/bin/../lib/gcc/arm-none-eabi/10.3.1/../../../../arm-none-eabi/lib/thumb/v8-m.main+fp/hard/libc_nano.a(lib_a-strtoll.o)
                0x0000000008004aa8                strtoll
 .text._strtoul_l.constprop.0
                0x0000000008004abc       0xe4 /Applications/Simplicity Studio.app/Contents/Eclipse/developer/toolchains/gnu_arm/10.3_2021.10/bin/../lib/gcc/arm-none-eabi/10.3.1/../../../../arm-none-eabi/lib/thumb/v8-m.main+fp/hard/libc_nano.a(lib_a-strtoul.o)
 .text.strtoul  0x0000000008004ba0       0x14 /Applications/Simplicity Studio.app/Contents/Eclipse/developer/toolchains/gnu_arm/10.3_2021.10/bin/../lib/gcc/arm-none-eabi/10.3.1/../../../../arm-none-eabi/lib/thumb/v8-m.main+fp/hard/libc_nano.a(lib_a-strtoul.o)
                0x0000000008004ba0                strtoul
 .text.vprintf  0x0000000008004bb4       0x30 /Applications/Simplicity Studio.app/Contents/Eclipse/developer/toolchains/gnu_arm/10.3_2021.10/bin/../lib/gcc/arm-none-eabi/10.3.1/../../../../arm-none-eabi/lib/thumb/v8-m.main+fp/hard/libc_nano.a(lib_a-vprintf.o)
                0x0000000008004bb4                vprintf
                0x0000000008004bb4                viprintf
 .text.__swbuf_r
                0x0000000008004be4       0xa4 /Applications/Simplicity Studio.app/Contents/Eclipse/developer/toolchains/gnu_arm/10.3_2021.10/bin/../lib/gcc/arm-none-eabi/10.3.1/../../../../arm-none-eabi/lib/thumb/v8-m.main+fp/hard/libc_nano.a(lib_a-wbuf.o)
                0x0000000008004be4                __swbuf_r
 .text.__swsetup_r
                0x0000000008004c88       0xdc /Applications/Simplicity Studio.app/Contents/Eclipse/developer/toolchains/gnu_arm/10.3_2021.10/bin/../lib/gcc/arm-none-eabi/10.3.1/../../../../arm-none-eabi/lib/thumb/v8-m.main+fp/hard/libc_nano.a(lib_a-wsetup.o)
                0x0000000008004c88                __swsetup_r
 .text.__errno  0x0000000008004d64        0xc /Applications/Simplicity Studio.app/Contents/Eclipse/developer/toolchains/gnu_arm/10.3_2021.10/bin/../lib/gcc/arm-none-eabi/10.3.1/../../../../arm-none-eabi/lib/thumb/v8-m.main+fp/hard/libc_nano.a(lib_a-errno.o)
                0x0000000008004d64                __errno
 .text.__sflush_r
                0x0000000008004d70      0x108 /Applications/Simplicity Studio.app/Contents/Eclipse/developer/toolchains/gnu_arm/10.3_2021.10/bin/../lib/gcc/arm-none-eabi/10.3.1/../../../../arm-none-eabi/lib/thumb/v8-m.main+fp/hard/libc_nano.a(lib_a-fflush.o)
                0x0000000008004d70                __sflush_r
 .text._fflush_r
                0x0000000008004e78       0x78 /Applications/Simplicity Studio.app/Contents/Eclipse/developer/toolchains/gnu_arm/10.3_2021.10/bin/../lib/gcc/arm-none-eabi/10.3.1/../../../../arm-none-eabi/lib/thumb/v8-m.main+fp/hard/libc_nano.a(lib_a-fflush.o)
                0x0000000008004e78                _fflush_r
 .text.std      0x0000000008004ef0       0x48 /Applications/Simplicity Studio.app/Contents/Eclipse/developer/toolchains/gnu_arm/10.3_2021.10/bin/../lib/gcc/arm-none-eabi/10.3.1/../../../../arm-none-eabi/lib/thumb/v8-m.main+fp/hard/libc_nano.a(lib_a-findfp.o)
 .text._cleanup_r
                0x0000000008004f38        0xc /Applications/Simplicity Studio.app/Contents/Eclipse/developer/toolchains/gnu_arm/10.3_2021.10/bin/../lib/gcc/arm-none-eabi/10.3.1/../../../../arm-none-eabi/lib/thumb/v8-m.main+fp/hard/libc_nano.a(lib_a-findfp.o)
                0x0000000008004f38                _cleanup_r
 .text.__sfp_lock_acquire
                0x0000000008004f44        0xc /Applications/Simplicity Studio.app/Contents/Eclipse/developer/toolchains/gnu_arm/10.3_2021.10/bin/../lib/gcc/arm-none-eabi/10.3.1/../../../../arm-none-eabi/lib/thumb/v8-m.main+fp/hard/libc_nano.a(lib_a-findfp.o)
                0x0000000008004f44                __sfp_lock_acquire
 .text.__sfp_lock_release
                0x0000000008004f50        0xc /Applications/Simplicity Studio.app/Contents/Eclipse/developer/toolchains/gnu_arm/10.3_2021.10/bin/../lib/gcc/arm-none-eabi/10.3.1/../../../../arm-none-eabi/lib/thumb/v8-m.main+fp/hard/libc_nano.a(lib_a-findfp.o)
                0x0000000008004f50                __sfp_lock_release
 .text.__sinit_lock_acquire
                0x0000000008004f5c        0xc /Applications/Simplicity Studio.app/Contents/Eclipse/developer/toolchains/gnu_arm/10.3_2021.10/bin/../lib/gcc/arm-none-eabi/10.3.1/../../../../arm-none-eabi/lib/thumb/v8-m.main+fp/hard/libc_nano.a(lib_a-findfp.o)
                0x0000000008004f5c                __sinit_lock_acquire
 .text.__sinit_lock_release
                0x0000000008004f68        0xc /Applications/Simplicity Studio.app/Contents/Eclipse/developer/toolchains/gnu_arm/10.3_2021.10/bin/../lib/gcc/arm-none-eabi/10.3.1/../../../../arm-none-eabi/lib/thumb/v8-m.main+fp/hard/libc_nano.a(lib_a-findfp.o)
                0x0000000008004f68                __sinit_lock_release
 .text.__sinit  0x0000000008004f74       0x70 /Applications/Simplicity Studio.app/Contents/Eclipse/developer/toolchains/gnu_arm/10.3_2021.10/bin/../lib/gcc/arm-none-eabi/10.3.1/../../../../arm-none-eabi/lib/thumb/v8-m.main+fp/hard/libc_nano.a(lib_a-findfp.o)
                0x0000000008004f74                __sinit
 .text.__sfp    0x0000000008004fe4       0x8c /Applications/Simplicity Studio.app/Contents/Eclipse/developer/toolchains/gnu_arm/10.3_2021.10/bin/../lib/gcc/arm-none-eabi/10.3.1/../../../../arm-none-eabi/lib/thumb/v8-m.main+fp/hard/libc_nano.a(lib_a-findfp.o)
                0x0000000008004fe4                __sfp
 .text.__smakebuf_r
                0x0000000008005070       0x80 /Applications/Simplicity Studio.app/Contents/Eclipse/developer/toolchains/gnu_arm/10.3_2021.10/bin/../lib/gcc/arm-none-eabi/10.3.1/../../../../arm-none-eabi/lib/thumb/v8-m.main+fp/hard/libc_nano.a(lib_a-makebuf.o)
                0x0000000008005070                __smakebuf_r
 .text.malloc   0x00000000080050f0       0x10 /Applications/Simplicity Studio.app/Contents/Eclipse/developer/toolchains/gnu_arm/10.3_2021.10/bin/../lib/gcc/arm-none-eabi/10.3.1/../../../../arm-none-eabi/lib/thumb/v8-m.main+fp/hard/libc_nano.a(lib_a-malloc.o)
                0x00000000080050f0                malloc
 .text._free_r  0x0000000008005100       0x98 /Applications/Simplicity Studio.app/Contents/Eclipse/developer/toolchains/gnu_arm/10.3_2021.10/bin/../lib/gcc/arm-none-eabi/10.3.1/../../../../arm-none-eabi/lib/thumb/v8-m.main+fp/hard/libc_nano.a(lib_a-nano-freer.o)
                0x0000000008005100                _free_r
 .text.sbrk_aligned
                0x0000000008005198       0x40 /Applications/Simplicity Studio.app/Contents/Eclipse/developer/toolchains/gnu_arm/10.3_2021.10/bin/../lib/gcc/arm-none-eabi/10.3.1/../../../../arm-none-eabi/lib/thumb/v8-m.main+fp/hard/libc_nano.a(lib_a-nano-mallocr.o)
 .text._malloc_r
                0x00000000080051d8       0xe8 /Applications/Simplicity Studio.app/Contents/Eclipse/developer/toolchains/gnu_arm/10.3_2021.10/bin/../lib/gcc/arm-none-eabi/10.3.1/../../../../arm-none-eabi/lib/thumb/v8-m.main+fp/hard/libc_nano.a(lib_a-nano-mallocr.o)
                0x00000000080051d8                _malloc_r
 .text._vfprintf_r
                0x00000000080052c0      0x260 /Applications/Simplicity Studio.app/Contents/Eclipse/developer/toolchains/gnu_arm/10.3_2021.10/bin/../lib/gcc/arm-none-eabi/10.3.1/../../../../arm-none-eabi/lib/thumb/v8-m.main+fp/hard/libc_nano.a(lib_a-nano-vfprintf.o)
                0x00000000080052c0                _vfiprintf_r
                0x00000000080052c0                _vfprintf_r
 .text._printf_i
                0x0000000008005520      0x24c /Applications/Simplicity Studio.app/Contents/Eclipse/developer/toolchains/gnu_arm/10.3_2021.10/bin/../lib/gcc/arm-none-eabi/10.3.1/../../../../arm-none-eabi/lib/thumb/v8-m.main+fp/hard/libc_nano.a(lib_a-nano-vfprintf_i.o)
                0x0000000008005520                _printf_i
 .text._sbrk_r  0x000000000800576c       0x20 /Applications/Simplicity Studio.app/Contents/Eclipse/developer/toolchains/gnu_arm/10.3_2021.10/bin/../lib/gcc/arm-none-eabi/10.3.1/../../../../arm-none-eabi/lib/thumb/v8-m.main+fp/hard/libc_nano.a(lib_a-sbrkr.o)
                0x000000000800576c                _sbrk_r
 .text._write_r
                0x000000000800578c       0x24 /Applications/Simplicity Studio.app/Contents/Eclipse/developer/toolchains/gnu_arm/10.3_2021.10/bin/../lib/gcc/arm-none-eabi/10.3.1/../../../../arm-none-eabi/lib/thumb/v8-m.main+fp/hard/libc_nano.a(lib_a-writer.o)
                0x000000000800578c                _write_r
 .text._close_r
                0x00000000080057b0       0x20 /Applications/Simplicity Studio.app/Contents/Eclipse/developer/toolchains/gnu_arm/10.3_2021.10/bin/../lib/gcc/arm-none-eabi/10.3.1/../../../../arm-none-eabi/lib/thumb/v8-m.main+fp/hard/libc_nano.a(lib_a-closer.o)
                0x00000000080057b0                _close_r
 .text._fstat_r
                0x00000000080057d0       0x24 /Applications/Simplicity Studio.app/Contents/Eclipse/developer/toolchains/gnu_arm/10.3_2021.10/bin/../lib/gcc/arm-none-eabi/10.3.1/../../../../arm-none-eabi/lib/thumb/v8-m.main+fp/hard/libc_nano.a(lib_a-fstatr.o)
                0x00000000080057d0                _fstat_r
 .text._isatty_r
                0x00000000080057f4       0x20 /Applications/Simplicity Studio.app/Contents/Eclipse/developer/toolchains/gnu_arm/10.3_2021.10/bin/../lib/gcc/arm-none-eabi/10.3.1/../../../../arm-none-eabi/lib/thumb/v8-m.main+fp/hard/libc_nano.a(lib_a-isattyr.o)
                0x00000000080057f4                _isatty_r
 .text._lseek_r
                0x0000000008005814       0x24 /Applications/Simplicity Studio.app/Contents/Eclipse/developer/toolchains/gnu_arm/10.3_2021.10/bin/../lib/gcc/arm-none-eabi/10.3.1/../../../../arm-none-eabi/lib/thumb/v8-m.main+fp/hard/libc_nano.a(lib_a-lseekr.o)
                0x0000000008005814                _lseek_r
 .text.__malloc_lock
                0x0000000008005838        0xc /Applications/Simplicity Studio.app/Contents/Eclipse/developer/toolchains/gnu_arm/10.3_2021.10/bin/../lib/gcc/arm-none-eabi/10.3.1/../../../../arm-none-eabi/lib/thumb/v8-m.main+fp/hard/libc_nano.a(lib_a-mlock.o)
                0x0000000008005838                __malloc_lock
 .text.__malloc_unlock
                0x0000000008005844        0xc /Applications/Simplicity Studio.app/Contents/Eclipse/developer/toolchains/gnu_arm/10.3_2021.10/bin/../lib/gcc/arm-none-eabi/10.3.1/../../../../arm-none-eabi/lib/thumb/v8-m.main+fp/hard/libc_nano.a(lib_a-mlock.o)
                0x0000000008005844                __malloc_unlock
 .text._read_r  0x0000000008005850       0x24 /Applications/Simplicity Studio.app/Contents/Eclipse/developer/toolchains/gnu_arm/10.3_2021.10/bin/../lib/gcc/arm-none-eabi/10.3.1/../../../../arm-none-eabi/lib/thumb/v8-m.main+fp/hard/libc_nano.a(lib_a-readr.o)
                0x0000000008005850                _read_r
 .text.validateObjFragments
                0x0000000008005874      0x238 gecko_sdk_4.3.1/platform/emdrv/nvm3/lib/libnvm3_CM33_gcc.a(nvm3.o)
 .text.findObj  0x0000000008005aac      0x170 gecko_sdk_4.3.1/platform/emdrv/nvm3/lib/libnvm3_CM33_gcc.a(nvm3.o)
 .text.fifoScan
                0x0000000008005c1c       0x74 gecko_sdk_4.3.1/platform/emdrv/nvm3/lib/libnvm3_CM33_gcc.a(nvm3.o)
 .text.repackWorker
                0x0000000008005c90      0x154 gecko_sdk_4.3.1/platform/emdrv/nvm3/lib/libnvm3_CM33_gcc.a(nvm3.o)
 .text.enumScanFifoCallback
                0x0000000008005de4       0x6c gecko_sdk_4.3.1/platform/emdrv/nvm3/lib/libnvm3_CM33_gcc.a(nvm3.o)
 .text.fifoReadObj.constprop.0
                0x0000000008005e50      0x168 gecko_sdk_4.3.1/platform/emdrv/nvm3/lib/libnvm3_CM33_gcc.a(nvm3.o)
 .text.enumObjects
                0x0000000008005fb8       0x78 gecko_sdk_4.3.1/platform/emdrv/nvm3/lib/libnvm3_CM33_gcc.a(nvm3.o)
 .text.counterIncFldSet.constprop.0
                0x0000000008006030       0x64 gecko_sdk_4.3.1/platform/emdrv/nvm3/lib/libnvm3_CM33_gcc.a(nvm3.o)
 .text.fifoWriteObj
                0x0000000008006094      0x428 gecko_sdk_4.3.1/platform/emdrv/nvm3/lib/libnvm3_CM33_gcc.a(nvm3.o)
 .text.fifoWriteWrapper
                0x00000000080064bc       0xa8 gecko_sdk_4.3.1/platform/emdrv/nvm3/lib/libnvm3_CM33_gcc.a(nvm3.o)
 .text.fifoUpdateCounter.constprop.0
                0x0000000008006564      0x188 gecko_sdk_4.3.1/platform/emdrv/nvm3/lib/libnvm3_CM33_gcc.a(nvm3.o)
 .text.repackFirstPageCallback
                0x00000000080066ec       0x84 gecko_sdk_4.3.1/platform/emdrv/nvm3/lib/libnvm3_CM33_gcc.a(nvm3.o)
 .text.repackFirstPageScanCacheCallback
                0x0000000008006770       0xb0 gecko_sdk_4.3.1/platform/emdrv/nvm3/lib/libnvm3_CM33_gcc.a(nvm3.o)
 .text.initialize
                0x0000000008006820      0x280 gecko_sdk_4.3.1/platform/emdrv/nvm3/lib/libnvm3_CM33_gcc.a(nvm3.o)
 .text.nvm3_open
                0x0000000008006aa0      0x1ac gecko_sdk_4.3.1/platform/emdrv/nvm3/lib/libnvm3_CM33_gcc.a(nvm3.o)
                0x0000000008006aa0                nvm3_open
 .text.nvm3_writeData
                0x0000000008006c4c       0x94 gecko_sdk_4.3.1/platform/emdrv/nvm3/lib/libnvm3_CM33_gcc.a(nvm3.o)
                0x0000000008006c4c                nvm3_writeData
 .text.nvm3_readData
                0x0000000008006ce0       0x9c gecko_sdk_4.3.1/platform/emdrv/nvm3/lib/libnvm3_CM33_gcc.a(nvm3.o)
                0x0000000008006ce0                nvm3_readData
 .text.nvm3_writeCounter
                0x0000000008006d7c       0x98 gecko_sdk_4.3.1/platform/emdrv/nvm3/lib/libnvm3_CM33_gcc.a(nvm3.o)
                0x0000000008006d7c                nvm3_writeCounter
 .text.nvm3_readCounter
                0x0000000008006e14       0x80 gecko_sdk_4.3.1/platform/emdrv/nvm3/lib/libnvm3_CM33_gcc.a(nvm3.o)
                0x0000000008006e14                nvm3_readCounter
 .text.nvm3_incrementCounter
                0x0000000008006e94       0x8c gecko_sdk_4.3.1/platform/emdrv/nvm3/lib/libnvm3_CM33_gcc.a(nvm3.o)
                0x0000000008006e94                nvm3_incrementCounter
 .text.nvm3_getObjectInfo
                0x0000000008006f20       0x8c gecko_sdk_4.3.1/platform/emdrv/nvm3/lib/libnvm3_CM33_gcc.a(nvm3.o)
                0x0000000008006f20                nvm3_getObjectInfo
 .text.nvm3_deleteObject
                0x0000000008006fac       0x78 gecko_sdk_4.3.1/platform/emdrv/nvm3/lib/libnvm3_CM33_gcc.a(nvm3.o)
                0x0000000008006fac                nvm3_deleteObject
 .text.nvm3_eraseAll
                0x0000000008007024       0x40 gecko_sdk_4.3.1/platform/emdrv/nvm3/lib/libnvm3_CM33_gcc.a(nvm3.o)
                0x0000000008007024                nvm3_eraseAll
 .text.nvm3_repack
                0x0000000008007064       0x4c gecko_sdk_4.3.1/platform/emdrv/nvm3/lib/libnvm3_CM33_gcc.a(nvm3.o)
                0x0000000008007064                nvm3_repack
 .text.nvm3_cacheSet
                0x00000000080070b0       0xa0 gecko_sdk_4.3.1/platform/emdrv/nvm3/lib/libnvm3_CM33_gcc.a(nvm3_cache.o)
                0x00000000080070b0                nvm3_cacheSet
 .text.nvm3_cacheScan
                0x0000000008007150       0x44 gecko_sdk_4.3.1/platform/emdrv/nvm3/lib/libnvm3_CM33_gcc.a(nvm3_cache.o)
                0x0000000008007150                nvm3_cacheScan
 .text.nvm3_objHdrInit
                0x0000000008007194       0x98 gecko_sdk_4.3.1/platform/emdrv/nvm3/lib/libnvm3_CM33_gcc.a(nvm3_object.o)
                0x0000000008007194                nvm3_objHdrInit
 .text.nvm3_objInit
                0x000000000800722c       0x2c gecko_sdk_4.3.1/platform/emdrv/nvm3/lib/libnvm3_CM33_gcc.a(nvm3_object.o)
                0x000000000800722c                nvm3_objInit
 .text.nvm3_objTypeToGroup
                0x0000000008007258       0x10 gecko_sdk_4.3.1/platform/emdrv/nvm3/lib/libnvm3_CM33_gcc.a(nvm3_object.o)
                0x0000000008007258                nvm3_objTypeToGroup
 .text.nvm3_pageHeaderWrite
                0x0000000008007268       0xec gecko_sdk_4.3.1/platform/emdrv/nvm3/lib/libnvm3_CM33_gcc.a(nvm3_page.o)
                0x0000000008007268                nvm3_pageHeaderWrite
 .text.app_init
                0x0000000008007354        0x4 vscode-build/obj/app.o
                0x0000000008007354                app_init
 .text.app_process_action
                0x0000000008007358        0x4 vscode-build/obj/app.o
                0x0000000008007358                app_process_action
 .text.sl_board_default_init
                0x000000000800735c        0x4 vscode-build/obj/autogen/sl_board_default_init.o
                0x000000000800735c                sl_board_default_init
 .text.sl_driver_init
                0x0000000008007360        0xe vscode-build/obj/autogen/sl_event_handler.o
                0x0000000008007360                sl_driver_init
 .text.sl_service_init
                0x000000000800736e       0x16 vscode-build/obj/autogen/sl_event_handler.o
                0x000000000800736e                sl_service_init
 .text.sl_stack_init
                0x0000000008007384        0x2 vscode-build/obj/autogen/sl_event_handler.o
                0x0000000008007384                sl_stack_init
 .text.sl_internal_app_init
                0x0000000008007386        0x2 vscode-build/obj/autogen/sl_event_handler.o
                0x0000000008007386                sl_internal_app_init
 .text.sl_platform_process_action
                0x0000000008007388        0x2 vscode-build/obj/autogen/sl_event_handler.o
                0x0000000008007388                sl_platform_process_action
 .text.sl_service_process_action
                0x000000000800738a        0x4 vscode-build/obj/autogen/sl_event_handler.o
                0x000000000800738a                sl_service_process_action
 .text.sl_stack_process_action
                0x000000000800738e        0x2 vscode-build/obj/autogen/sl_event_handler.o
                0x000000000800738e                sl_stack_process_action
 .text.sl_internal_app_process_action
                0x0000000008007390        0x2 vscode-build/obj/autogen/sl_event_handler.o
                0x0000000008007390                sl_internal_app_process_action
 .text.sl_iostream_eusart_init_instances
                0x0000000008007392        0x4 vscode-build/obj/autogen/sl_iostream_init_eusart_instances.o
                0x0000000008007392                sl_iostream_eusart_init_instances
 .text.EUSART0_TX_IRQHandler
                0x0000000008007396        0x4 vscode-build/obj/autogen/sl_iostream_init_eusart_instances.o
                0x0000000008007396                EUSART0_TX_IRQHandler
 .text.sl_board_enable_vcom
                0x000000000800739a       0x12 vscode-build/obj/gecko_sdk_4.3.1/hardware/board/src/sl_board_control_gpio.o
                0x000000000800739a                sl_board_enable_vcom
 .text.sl_board_configure_vcom
                0x00000000080073ac        0x4 vscode-build/obj/gecko_sdk_4.3.1/hardware/board/src/sl_board_control_gpio.o
                0x00000000080073ac                sl_board_configure_vcom
 .text.sl_board_disable_vcom
                0x00000000080073b0       0x12 vscode-build/obj/gecko_sdk_4.3.1/hardware/board/src/sl_board_control_gpio.o
                0x00000000080073b0                sl_board_disable_vcom
 .text.sl_board_init
                0x00000000080073c2       0x16 vscode-build/obj/gecko_sdk_4.3.1/hardware/board/src/sl_board_init.o
                0x00000000080073c2                sl_board_init
 .text.sl_board_preinit
                0x00000000080073d8        0x8 vscode-build/obj/gecko_sdk_4.3.1/hardware/board/src/sl_board_init.o
                0x00000000080073d8                sl_board_preinit
 .text.sli_cos_swo_itm_8_write.constprop.0.isra.0
                0x00000000080073e0       0x60 vscode-build/obj/gecko_sdk_4.3.1/hardware/driver/configuration_over_swo/src/sl_cos.o
 .text.sl_cos_send_config
                0x0000000008007440       0x12 vscode-build/obj/gecko_sdk_4.3.1/hardware/driver/configuration_over_swo/src/sl_cos.o
                0x0000000008007440                sl_cos_send_config
 .text.sl_cos_config_vcom
                0x0000000008007452       0x1e vscode-build/obj/gecko_sdk_4.3.1/hardware/driver/configuration_over_swo/src/sl_cos.o
                0x0000000008007452                sl_cos_config_vcom
 .text.Default_Handler
                0x0000000008007470        0x2 vscode-build/obj/gecko_sdk_4.3.1/platform/Device/SiliconLabs/EFR32ZG23/Source/startup_efr32zg23.o
                0x0000000008007470                SYSRTC_APP_IRQHandler
                0x0000000008007470                SW2_IRQHandler
                0x0000000008007470                TIMER2_IRQHandler
                0x0000000008007470                DebugMon_Handler
                0x0000000008007470                USART0_TX_IRQHandler
                0x0000000008007470                IADC_IRQHandler
                0x0000000008007470                I2C0_IRQHandler
                0x0000000008007470                LFXO_IRQHandler
                0x0000000008007470                VDAC_IRQHandler
                0x0000000008007470                HardFault_Handler
                0x0000000008007470                SMU_SECURE_IRQHandler
                0x0000000008007470                SysTick_Handler
                0x0000000008007470                SYSRTC_SEQ_IRQHandler
                0x0000000008007470                EMUEFP_IRQHandler
                0x0000000008007470                EUSART2_TX_IRQHandler
                0x0000000008007470                PendSV_Handler
                0x0000000008007470                NMI_Handler
                0x0000000008007470                SYNTH_IRQHandler
                0x0000000008007470                HOSTMAILBOX_IRQHandler
                0x0000000008007470                HFXO0_IRQHandler
                0x0000000008007470                I2C1_IRQHandler
                0x0000000008007470                WDOG0_IRQHandler
                0x0000000008007470                TIMER3_IRQHandler
                0x0000000008007470                SYSCFG_IRQHandler
                0x0000000008007470                RFECA1_IRQHandler
                0x0000000008007470                EMUDG_IRQHandler
                0x0000000008007470                MSC_IRQHandler
                0x0000000008007470                DPLL0_IRQHandler
                0x0000000008007470                UsageFault_Handler
                0x0000000008007470                WDOG1_IRQHandler
                0x0000000008007470                M33CTI1_IRQHandler
                0x0000000008007470                TIMER4_IRQHandler
                0x0000000008007470                GPIO_EVEN_IRQHandler
                0x0000000008007470                SEMBTX_IRQHandler
                0x0000000008007470                SW0_IRQHandler
                0x0000000008007470                TIMER0_IRQHandler
                0x0000000008007470                LCD_IRQHandler
                0x0000000008007470                LETIMER0_IRQHandler
                0x0000000008007470                EUSART1_RX_IRQHandler
                0x0000000008007470                TIMER1_IRQHandler
                0x0000000008007470                HFRCO0_IRQHandler
                0x0000000008007470                SecureFault_Handler
                0x0000000008007470                BUFC_IRQHandler
                0x0000000008007470                DCDC_IRQHandler
                0x0000000008007470                MODEM_IRQHandler
                0x0000000008007470                Default_Handler
                0x0000000008007470                RAC_SEQ_IRQHandler
                0x0000000008007470                FRC_PRI_IRQHandler
                0x0000000008007470                EMU_IRQHandler
                0x0000000008007470                SW3_IRQHandler
                0x0000000008007470                KERNEL0_IRQHandler
                0x0000000008007470                FRC_IRQHandler
                0x0000000008007470                PCNT0_IRQHandler
                0x0000000008007470                KERNEL1_IRQHandler
                0x0000000008007470                AGC_IRQHandler
                0x0000000008007470                EUSART1_TX_IRQHandler
                0x0000000008007470                KEYSCAN_IRQHandler
                0x0000000008007470                sl_app_properties
                0x0000000008007470                HFRCOEM23_IRQHandler
                0x0000000008007470                BURTC_IRQHandler
                0x0000000008007470                SEMBRX_IRQHandler
                0x0000000008007470                RFECA0_IRQHandler
                0x0000000008007470                LFRCO_IRQHandler
                0x0000000008007470                ACMP0_IRQHandler
                0x0000000008007470                USART0_RX_IRQHandler
                0x0000000008007470                MemManage_Handler
                0x0000000008007470                SVC_Handler
                0x0000000008007470                EUSART2_RX_IRQHandler
                0x0000000008007470                SMU_S_PRIVILEGED_IRQHandler
                0x0000000008007470                SW1_IRQHandler
                0x0000000008007470                CMU_IRQHandler
                0x0000000008007470                RAC_RSM_IRQHandler
                0x0000000008007470                SETAMPERHOST_IRQHandler
                0x0000000008007470                GPIO_ODD_IRQHandler
                0x0000000008007470                LESENSE_IRQHandler
                0x0000000008007470                AES_IRQHandler
                0x0000000008007470                M33CTI0_IRQHandler
                0x0000000008007470                ICACHE0_IRQHandler
                0x0000000008007470                SMU_NS_PRIVILEGED_IRQHandler
                0x0000000008007470                FPUEXH_IRQHandler
                0x0000000008007470                PROTIMER_IRQHandler
                0x0000000008007470                ACMP1_IRQHandler
                0x0000000008007470                BusFault_Handler
                0x0000000008007470                MPAHBRAM_IRQHandler
                0x0000000008007470                ULFRCO_IRQHandler
 .text.SystemCLKIN0Get
                0x0000000008007472        0x4 vscode-build/obj/gecko_sdk_4.3.1/platform/Device/SiliconLabs/EFR32ZG23/Source/system_efr32zg23.o
                0x0000000008007472                SystemCLKIN0Get
 .text.SystemLFRCOClockGet
                0x0000000008007476        0x6 vscode-build/obj/gecko_sdk_4.3.1/platform/Device/SiliconLabs/EFR32ZG23/Source/system_efr32zg23.o
                0x0000000008007476                SystemLFRCOClockGet
 .text.SystemULFRCOClockGet
                0x000000000800747c        0x6 vscode-build/obj/gecko_sdk_4.3.1/platform/Device/SiliconLabs/EFR32ZG23/Source/system_efr32zg23.o
                0x000000000800747c                SystemULFRCOClockGet
 .text.assertEFM
                0x0000000008007482        0x2 vscode-build/obj/gecko_sdk_4.3.1/platform/common/src/sl_assert.o
                0x0000000008007482                assertEFM
 .text.sl_slist_init
                0x0000000008007484        0x6 vscode-build/obj/gecko_sdk_4.3.1/platform/common/src/sl_slist.o
                0x0000000008007484                sl_slist_init
 .text.sl_strcpy_s
                0x000000000800748a       0x22 vscode-build/obj/gecko_sdk_4.3.1/platform/common/src/sl_string.o
                0x000000000800748a                sl_strcpy_s
 .text.sl_strnlen
                0x00000000080074ac       0x16 vscode-build/obj/gecko_sdk_4.3.1/platform/common/src/sl_string.o
                0x00000000080074ac                sl_strnlen
 .text.sl_strlen
                0x00000000080074c2        0x8 vscode-build/obj/gecko_sdk_4.3.1/platform/common/src/sl_string.o
                0x00000000080074c2                sl_strlen
 .text.sl_strcat_s
                0x00000000080074ca       0x26 vscode-build/obj/gecko_sdk_4.3.1/platform/common/src/sl_string.o
                0x00000000080074ca                sl_strcat_s
 .text.sl_debug_swo_enable_itm
                0x00000000080074f0       0x18 vscode-build/obj/gecko_sdk_4.3.1/platform/driver/debug/src/sl_debug_swo.o
                0x00000000080074f0                sl_debug_swo_enable_itm
 .text.sl_debug_swo_disable_itm
                0x0000000008007508       0x1a vscode-build/obj/gecko_sdk_4.3.1/platform/driver/debug/src/sl_debug_swo.o
                0x0000000008007508                sl_debug_swo_disable_itm
 .text.DMADRV_PeripheralMemory
                0x0000000008007522       0x34 vscode-build/obj/gecko_sdk_4.3.1/platform/emdrv/dmadrv/src/dmadrv.o
                0x0000000008007522                DMADRV_PeripheralMemory
 .text.nvm3_halFlashAccess
                0x0000000008007556        0x2 vscode-build/obj/gecko_sdk_4.3.1/platform/emdrv/nvm3/src/nvm3_hal_flash.o
 .text.nvm3_halFlashGetInfo
                0x0000000008007558       0x22 vscode-build/obj/gecko_sdk_4.3.1/platform/emdrv/nvm3/src/nvm3_hal_flash.o
 .text.nvm3_halFlashClose
                0x000000000800757a        0x4 vscode-build/obj/gecko_sdk_4.3.1/platform/emdrv/nvm3/src/nvm3_hal_flash.o
 .text.nvm3_halFlashOpen
                0x000000000800757e        0xa vscode-build/obj/gecko_sdk_4.3.1/platform/emdrv/nvm3/src/nvm3_hal_flash.o
 .text.nvm3_halFlashReadWords
                0x0000000008007588       0x2e vscode-build/obj/gecko_sdk_4.3.1/platform/emdrv/nvm3/src/nvm3_hal_flash.o
 .text.nvm3_lockDisableExecute
                0x00000000080075b6        0x2 vscode-build/obj/gecko_sdk_4.3.1/platform/emdrv/nvm3/src/nvm3_lock.o
                0x00000000080075b6                nvm3_lockDisableExecute
 .text.BUS_RegMaskedWrite
                0x00000000080075b8       0x22 vscode-build/obj/gecko_sdk_4.3.1/platform/emlib/src/em_cmu.o
 .text.waitStateMax
                0x00000000080075da       0x10 vscode-build/obj/gecko_sdk_4.3.1/platform/emlib/src/em_cmu.o
 .text.CMU_UpdateWaitStates
                0x00000000080075ea        0xc vscode-build/obj/gecko_sdk_4.3.1/platform/emlib/src/em_cmu.o
                0x00000000080075ea                CMU_UpdateWaitStates
 .text.pclkDivMax
                0x00000000080075f6        0xa vscode-build/obj/gecko_sdk_4.3.1/platform/emlib/src/em_cmu.o
 .text.sli_em_cmu_SYSCLKInitPostClockSelect
                0x0000000008007600       0x2a vscode-build/obj/gecko_sdk_4.3.1/platform/emlib/src/em_cmu.o
                0x0000000008007600                sli_em_cmu_SYSCLKInitPostClockSelect
 .text.CORE_EnterCritical
                0x000000000800762a        0x8 vscode-build/obj/gecko_sdk_4.3.1/platform/emlib/src/em_core.o
                0x000000000800762a                CORE_EnterCritical
 .text.CORE_ExitCritical
                0x0000000008007632        0x6 vscode-build/obj/gecko_sdk_4.3.1/platform/emlib/src/em_core.o
                0x0000000008007632                CORE_ExitCritical
 .text.CORE_EnterAtomic
                0x0000000008007638        0xc vscode-build/obj/gecko_sdk_4.3.1/platform/emlib/src/em_core.o
                0x0000000008007638                CORE_EnterAtomic
 .text.CORE_ExitAtomic
                0x0000000008007644        0x6 vscode-build/obj/gecko_sdk_4.3.1/platform/emlib/src/em_core.o
                0x0000000008007644                CORE_ExitAtomic
 .text.EMU_EFPEM01VScale
                0x000000000800764a        0x2 vscode-build/obj/gecko_sdk_4.3.1/platform/emlib/src/em_emu.o
                0x000000000800764a                EMU_EFPEM01VScale
 .text.EMU_DCDCUpdatedHook
                0x000000000800764c        0x2 vscode-build/obj/gecko_sdk_4.3.1/platform/emlib/src/em_emu.o
                0x000000000800764c                EMU_DCDCUpdatedHook
 .text.eusart_sync
                0x000000000800764e        0x8 vscode-build/obj/gecko_sdk_4.3.1/platform/emlib/src/em_eusart.o
 .text.EUSART_Disable
                0x0000000008007656       0x34 vscode-build/obj/gecko_sdk_4.3.1/platform/emlib/src/em_eusart.o
 .text.EUSART_Tx
                0x000000000800768a        0xa vscode-build/obj/gecko_sdk_4.3.1/platform/emlib/src/em_eusart.o
                0x000000000800768a                EUSART_Tx
 .text.BUS_RegMaskedWrite
                0x0000000008007694       0x22 vscode-build/obj/gecko_sdk_4.3.1/platform/emlib/src/em_gpio.o
 .text.GPIO_DbgLocationSet
                0x00000000080076b6        0x2 vscode-build/obj/gecko_sdk_4.3.1/platform/emlib/src/em_gpio.o
                0x00000000080076b6                GPIO_DbgLocationSet
 .text.USART_SpiTransfer
                0x00000000080076b8       0x14 vscode-build/obj/gecko_sdk_4.3.1/platform/emlib/src/em_usart.o
                0x00000000080076b8                USART_SpiTransfer
 .text.sli_cli_session_activity_notification
                0x00000000080076cc        0x2 vscode-build/obj/gecko_sdk_4.3.1/platform/service/cli/src/sl_cli.o
                0x00000000080076cc                sli_cli_session_activity_notification
 .text.sli_cli_session_init
                0x00000000080076ce        0x4 vscode-build/obj/gecko_sdk_4.3.1/platform/service/cli/src/sl_cli.o
                0x00000000080076ce                sli_cli_session_init
 .text.sli_cli_session_handler
                0x00000000080076d2        0x4 vscode-build/obj/gecko_sdk_4.3.1/platform/service/cli/src/sl_cli.o
                0x00000000080076d2                sli_cli_session_handler
 .text.sli_cli_handle_input_and_history
                0x00000000080076d6       0x26 vscode-build/obj/gecko_sdk_4.3.1/platform/service/cli/src/sl_cli.o
                0x00000000080076d6                sli_cli_handle_input_and_history
 .text.sl_cli_instance_init
                0x00000000080076fc       0x28 vscode-build/obj/gecko_sdk_4.3.1/platform/service/cli/src/sl_cli.o
                0x00000000080076fc                sl_cli_instance_init
 .text.sl_cli_tick_instance
                0x0000000008007724        0x8 vscode-build/obj/gecko_sdk_4.3.1/platform/service/cli/src/sl_cli.o
                0x0000000008007724                sl_cli_tick_instance
 .text.sli_cli_arguments_validate_int
                0x000000000800772c       0x12 vscode-build/obj/gecko_sdk_4.3.1/platform/service/cli/src/sl_cli_arguments.o
                0x000000000800772c                sli_cli_arguments_validate_int
 .text.sli_cli_validate_argument
                0x000000000800773e       0x40 vscode-build/obj/gecko_sdk_4.3.1/platform/service/cli/src/sl_cli_arguments.o
                0x000000000800773e                sli_cli_validate_argument
 .text.sli_cli_arguments_convert_single
                0x000000000800777e       0xfc vscode-build/obj/gecko_sdk_4.3.1/platform/service/cli/src/sl_cli_arguments.o
                0x000000000800777e                sli_cli_arguments_convert_single
 .text.sli_cli_arguments_convert_multiple
                0x000000000800787a       0xf8 vscode-build/obj/gecko_sdk_4.3.1/platform/service/cli/src/sl_cli_arguments.o
                0x000000000800787a                sli_cli_arguments_convert_multiple
 .text.scan_entry
                0x0000000008007972       0x90 vscode-build/obj/gecko_sdk_4.3.1/platform/service/cli/src/sl_cli_command.o
 .text.cmd_help_group
                0x0000000008007a02       0x18 vscode-build/obj/gecko_sdk_4.3.1/platform/service/cli/src/sl_cli_command.o
 .text.sli_cli_pre_cmd_hook
                0x0000000008007a1a        0x2 vscode-build/obj/gecko_sdk_4.3.1/platform/service/cli/src/sl_cli_command.o
                0x0000000008007a1a                sli_cli_pre_cmd_hook
 .text.sli_cli_post_cmd_hook
                0x0000000008007a1c        0x2 vscode-build/obj/gecko_sdk_4.3.1/platform/service/cli/src/sl_cli_command.o
                0x0000000008007a1c                sli_cli_post_cmd_hook
 .text.sl_cli_command_add_command_group
                0x0000000008007a1e       0x1c vscode-build/obj/gecko_sdk_4.3.1/platform/service/cli/src/sl_cli_command.o
                0x0000000008007a1e                sl_cli_command_add_command_group
 .text.sl_cli_command_execute
                0x0000000008007a3a       0xae vscode-build/obj/gecko_sdk_4.3.1/platform/service/cli/src/sl_cli_command.o
                0x0000000008007a3a                sl_cli_command_execute
 .text.history_get_count
                0x0000000008007ae8       0x28 vscode-build/obj/gecko_sdk_4.3.1/platform/service/cli/src/sl_cli_input.o
 .text.history_get_ofs
                0x0000000008007b10       0x66 vscode-build/obj/gecko_sdk_4.3.1/platform/service/cli/src/sl_cli_input.o
 .text.sl_cli_input_clear
                0x0000000008007b76       0x16 vscode-build/obj/gecko_sdk_4.3.1/platform/service/cli/src/sl_cli_input.o
                0x0000000008007b76                sl_cli_input_clear
 .text.sli_cli_input_update_history
                0x0000000008007b8c       0x88 vscode-build/obj/gecko_sdk_4.3.1/platform/service/cli/src/sl_cli_input.o
                0x0000000008007b8c                sli_cli_input_update_history
 .text.sl_cli_input_get_history
                0x0000000008007c14       0x92 vscode-build/obj/gecko_sdk_4.3.1/platform/service/cli/src/sl_cli_input.o
                0x0000000008007c14                sl_cli_input_get_history
 .text.sli_cli_io_getchar
                0x0000000008007ca6       0x1e vscode-build/obj/gecko_sdk_4.3.1/platform/service/cli/src/sl_cli_io.o
                0x0000000008007ca6                sli_cli_io_getchar
 .text.sli_cli_io_putchar
                0x0000000008007cc4       0x18 vscode-build/obj/gecko_sdk_4.3.1/platform/service/cli/src/sl_cli_io.o
                0x0000000008007cc4                sli_cli_io_putchar
 .text.sli_cli_io_printf
                0x0000000008007cdc       0x1c vscode-build/obj/gecko_sdk_4.3.1/platform/service/cli/src/sl_cli_io.o
                0x0000000008007cdc                sli_cli_io_printf
 .text.escape   0x0000000008007cf8       0x26 vscode-build/obj/gecko_sdk_4.3.1/platform/service/cli/src/sl_cli_tokenize.o
 .text.sl_cli_tokenize
                0x0000000008007d1e       0xe8 vscode-build/obj/gecko_sdk_4.3.1/platform/service/cli/src/sl_cli_tokenize.o
                0x0000000008007d1e                sl_cli_tokenize
 .text.sl_iostream_write
                0x0000000008007e06       0x28 vscode-build/obj/gecko_sdk_4.3.1/platform/service/iostream/src/sl_iostream.o
                0x0000000008007e06                sl_iostream_write
 .text.sl_iostream_read
                0x0000000008007e2e       0x32 vscode-build/obj/gecko_sdk_4.3.1/platform/service/iostream/src/sl_iostream.o
                0x0000000008007e2e                sl_iostream_read
 .text.sl_iostream_putchar
                0x0000000008007e60       0x16 vscode-build/obj/gecko_sdk_4.3.1/platform/service/iostream/src/sl_iostream.o
                0x0000000008007e60                sl_iostream_putchar
 .text.sl_iostream_getchar
                0x0000000008007e76        0x8 vscode-build/obj/gecko_sdk_4.3.1/platform/service/iostream/src/sl_iostream.o
                0x0000000008007e76                sl_iostream_getchar
 .text.eusart_deinit
                0x0000000008007e7e       0x70 vscode-build/obj/gecko_sdk_4.3.1/platform/service/iostream/src/sl_iostream_eusart.o
 .text.eusart_set_next_byte_detect
                0x0000000008007eee       0x30 vscode-build/obj/gecko_sdk_4.3.1/platform/service/iostream/src/sl_iostream_eusart.o
 .text.eusart_tx
                0x0000000008007f1e        0xc vscode-build/obj/gecko_sdk_4.3.1/platform/service/iostream/src/sl_iostream_eusart.o
 .text.sl_iostream_eusart_irq_handler
                0x0000000008007f2a       0x72 vscode-build/obj/gecko_sdk_4.3.1/platform/service/iostream/src/sl_iostream_eusart.o
                0x0000000008007f2a                sl_iostream_eusart_irq_handler
 .text._close   0x0000000008007f9c        0x4 vscode-build/obj/gecko_sdk_4.3.1/platform/service/iostream/src/sl_iostream_retarget_stdio.o
                0x0000000008007f9c                _close
 .text._exit    0x0000000008007fa0        0x2 vscode-build/obj/gecko_sdk_4.3.1/platform/service/iostream/src/sl_iostream_retarget_stdio.o
                0x0000000008007fa0                _exit
 .text._fstat   0x0000000008007fa2        0xa vscode-build/obj/gecko_sdk_4.3.1/platform/service/iostream/src/sl_iostream_retarget_stdio.o
                0x0000000008007fa2                _fstat
 .text._isatty  0x0000000008007fac        0x4 vscode-build/obj/gecko_sdk_4.3.1/platform/service/iostream/src/sl_iostream_retarget_stdio.o
                0x0000000008007fac                _isatty
 .text._lseek   0x0000000008007fb0        0x4 vscode-build/obj/gecko_sdk_4.3.1/platform/service/iostream/src/sl_iostream_retarget_stdio.o
                0x0000000008007fb0                _lseek
 .text._read    0x0000000008007fb4       0x1c vscode-build/obj/gecko_sdk_4.3.1/platform/service/iostream/src/sl_iostream_retarget_stdio.o
                0x0000000008007fb4                _read
 .text.set_auto_cr_lf
                0x0000000008007fd0        0x6 vscode-build/obj/gecko_sdk_4.3.1/platform/service/iostream/src/sl_iostream_uart.o
 .text.get_auto_cr_lf
                0x0000000008007fd6        0x6 vscode-build/obj/gecko_sdk_4.3.1/platform/service/iostream/src/sl_iostream_uart.o
 .text.sl_system_init
                0x0000000008007fdc       0x1a vscode-build/obj/gecko_sdk_4.3.1/platform/service/system/src/sl_system_init.o
                0x0000000008007fdc                sl_system_init
 .text.sl_system_process_action
                0x0000000008007ff6       0x16 vscode-build/obj/gecko_sdk_4.3.1/platform/service/system/src/sl_system_process_action.o
                0x0000000008007ff6                sl_system_process_action
 .text.startup.main
                0x000000000800800c       0x14 vscode-build/obj/main.o
                0x000000000800800c                main
 .text.memcmp   0x0000000008008020       0x20 /Applications/Simplicity Studio.app/Contents/Eclipse/developer/toolchains/gnu_arm/10.3_2021.10/bin/../lib/gcc/arm-none-eabi/10.3.1/../../../../arm-none-eabi/lib/thumb/v8-m.main+fp/hard/libc_nano.a(lib_a-memcmp.o)
                0x0000000008008020                memcmp
 .text.memcpy   0x0000000008008040       0x1a /Applications/Simplicity Studio.app/Contents/Eclipse/developer/toolchains/gnu_arm/10.3_2021.10/bin/../lib/gcc/arm-none-eabi/10.3.1/../../../../arm-none-eabi/lib/thumb/v8-m.main+fp/hard/libc_nano.a(lib_a-memcpy-stub.o)
                0x0000000008008040                memcpy
 .text.memmove  0x000000000800805a       0x34 /Applications/Simplicity Studio.app/Contents/Eclipse/developer/toolchains/gnu_arm/10.3_2021.10/bin/../lib/gcc/arm-none-eabi/10.3.1/../../../../arm-none-eabi/lib/thumb/v8-m.main+fp/hard/libc_nano.a(lib_a-memmove.o)
                0x000000000800805a                memmove
 .text.memset   0x000000000800808e       0x10 /Applications/Simplicity Studio.app/Contents/Eclipse/developer/toolchains/gnu_arm/10.3_2021.10/bin/../lib/gcc/arm-none-eabi/10.3.1/../../../../arm-none-eabi/lib/thumb/v8-m.main+fp/hard/libc_nano.a(lib_a-memset.o)
                0x000000000800808e                memset
 .text          0x000000000800809e       0x14 /Applications/Simplicity Studio.app/Contents/Eclipse/developer/toolchains/gnu_arm/10.3_2021.10/bin/../lib/gcc/arm-none-eabi/10.3.1/../../../../arm-none-eabi/lib/thumb/v8-m.main+fp/hard/libc_nano.a(lib_a-strcmp.o)
                0x000000000800809e                strcmp
 .text          0x00000000080080b2       0x10 /Applications/Simplicity Studio.app/Contents/Eclipse/developer/toolchains/gnu_arm/10.3_2021.10/bin/../lib/gcc/arm-none-eabi/10.3.1/../../../../arm-none-eabi/lib/thumb/v8-m.main+fp/hard/libc_nano.a(lib_a-strlen.o)
                0x00000000080080b2                strlen
 .text.strncmp  0x00000000080080c2       0x28 /Applications/Simplicity Studio.app/Contents/Eclipse/developer/toolchains/gnu_arm/10.3_2021.10/bin/../lib/gcc/arm-none-eabi/10.3.1/../../../../arm-none-eabi/lib/thumb/v8-m.main+fp/hard/libc_nano.a(lib_a-strncmp.o)
                0x00000000080080c2                strncmp
 .text.__sfmoreglue
                0x00000000080080ea       0x2c /Applications/Simplicity Studio.app/Contents/Eclipse/developer/toolchains/gnu_arm/10.3_2021.10/bin/../lib/gcc/arm-none-eabi/10.3.1/../../../../arm-none-eabi/lib/thumb/v8-m.main+fp/hard/libc_nano.a(lib_a-findfp.o)
                0x00000000080080ea                __sfmoreglue
 .text._fwalk_reent
                0x0000000008008116       0x3e /Applications/Simplicity Studio.app/Contents/Eclipse/developer/toolchains/gnu_arm/10.3_2021.10/bin/../lib/gcc/arm-none-eabi/10.3.1/../../../../arm-none-eabi/lib/thumb/v8-m.main+fp/hard/libc_nano.a(lib_a-fwalk.o)
                0x0000000008008116                _fwalk_reent
 .text.__retarget_lock_init_recursive
                0x0000000008008154        0x2 /Applications/Simplicity Studio.app/Contents/Eclipse/developer/toolchains/gnu_arm/10.3_2021.10/bin/../lib/gcc/arm-none-eabi/10.3.1/../../../../arm-none-eabi/lib/thumb/v8-m.main+fp/hard/libc_nano.a(lib_a-lock.o)
                0x0000000008008154                __retarget_lock_init_recursive
 .text.__retarget_lock_acquire_recursive
                0x0000000008008156        0x2 /Applications/Simplicity Studio.app/Contents/Eclipse/developer/toolchains/gnu_arm/10.3_2021.10/bin/../lib/gcc/arm-none-eabi/10.3.1/../../../../arm-none-eabi/lib/thumb/v8-m.main+fp/hard/libc_nano.a(lib_a-lock.o)
                0x0000000008008156                __retarget_lock_acquire_recursive
 .text.__retarget_lock_release_recursive
                0x0000000008008158        0x2 /Applications/Simplicity Studio.app/Contents/Eclipse/developer/toolchains/gnu_arm/10.3_2021.10/bin/../lib/gcc/arm-none-eabi/10.3.1/../../../../arm-none-eabi/lib/thumb/v8-m.main+fp/hard/libc_nano.a(lib_a-lock.o)
                0x0000000008008158                __retarget_lock_release_recursive
 .text.__swhatbuf_r
                0x000000000800815a       0x4a /Applications/Simplicity Studio.app/Contents/Eclipse/developer/toolchains/gnu_arm/10.3_2021.10/bin/../lib/gcc/arm-none-eabi/10.3.1/../../../../arm-none-eabi/lib/thumb/v8-m.main+fp/hard/libc_nano.a(lib_a-makebuf.o)
                0x000000000800815a                __swhatbuf_r
 .text.__sfputc_r
                0x00000000080081a4       0x2e /Applications/Simplicity Studio.app/Contents/Eclipse/developer/toolchains/gnu_arm/10.3_2021.10/bin/../lib/gcc/arm-none-eabi/10.3.1/../../../../arm-none-eabi/lib/thumb/v8-m.main+fp/hard/libc_nano.a(lib_a-nano-vfprintf.o)
 .text.__sfputs_r
                0x00000000080081d2       0x24 /Applications/Simplicity Studio.app/Contents/Eclipse/developer/toolchains/gnu_arm/10.3_2021.10/bin/../lib/gcc/arm-none-eabi/10.3.1/../../../../arm-none-eabi/lib/thumb/v8-m.main+fp/hard/libc_nano.a(lib_a-nano-vfprintf.o)
                0x00000000080081d2                __sfputs_r
 .text._printf_common
                0x00000000080081f6       0xe0 /Applications/Simplicity Studio.app/Contents/Eclipse/developer/toolchains/gnu_arm/10.3_2021.10/bin/../lib/gcc/arm-none-eabi/10.3.1/../../../../arm-none-eabi/lib/thumb/v8-m.main+fp/hard/libc_nano.a(lib_a-nano-vfprintf_i.o)
                0x00000000080081f6                _printf_common
 .text.__sread  0x00000000080082d6       0x22 /Applications/Simplicity Studio.app/Contents/Eclipse/developer/toolchains/gnu_arm/10.3_2021.10/bin/../lib/gcc/arm-none-eabi/10.3.1/../../../../arm-none-eabi/lib/thumb/v8-m.main+fp/hard/libc_nano.a(lib_a-stdio.o)
                0x00000000080082d6                __sread
 .text.__swrite
                0x00000000080082f8       0x38 /Applications/Simplicity Studio.app/Contents/Eclipse/developer/toolchains/gnu_arm/10.3_2021.10/bin/../lib/gcc/arm-none-eabi/10.3.1/../../../../arm-none-eabi/lib/thumb/v8-m.main+fp/hard/libc_nano.a(lib_a-stdio.o)
                0x00000000080082f8                __swrite
 .text.__sseek  0x0000000008008330       0x24 /Applications/Simplicity Studio.app/Contents/Eclipse/developer/toolchains/gnu_arm/10.3_2021.10/bin/../lib/gcc/arm-none-eabi/10.3.1/../../../../arm-none-eabi/lib/thumb/v8-m.main+fp/hard/libc_nano.a(lib_a-stdio.o)
                0x0000000008008330                __sseek
 .text.__sclose
                0x0000000008008354        0x8 /Applications/Simplicity Studio.app/Contents/Eclipse/developer/toolchains/gnu_arm/10.3_2021.10/bin/../lib/gcc/arm-none-eabi/10.3.1/../../../../arm-none-eabi/lib/thumb/v8-m.main+fp/hard/libc_nano.a(lib_a-stdio.o)
                0x0000000008008354                __sclose
 .text.memchr   0x000000000800835c       0x1c /Applications/Simplicity Studio.app/Contents/Eclipse/developer/toolchains/gnu_arm/10.3_2021.10/bin/../lib/gcc/arm-none-eabi/10.3.1/../../../../arm-none-eabi/lib/thumb/v8-m.main+fp/hard/libc_nano.a(lib_a-memchr-stub.o)
                0x000000000800835c                memchr
 .text.thrHard  0x0000000008008378       0x2a gecko_sdk_4.3.1/platform/emdrv/nvm3/lib/libnvm3_CM33_gcc.a(nvm3.o)
 .text.thrSoftMinimum
                0x00000000080083a2       0x20 gecko_sdk_4.3.1/platform/emdrv/nvm3/lib/libnvm3_CM33_gcc.a(nvm3.o)
 .text.scanPage
                0x00000000080083c2       0x32 gecko_sdk_4.3.1/platform/emdrv/nvm3/lib/libnvm3_CM33_gcc.a(nvm3.o)
 .text.workBegin
                0x00000000080083f4       0x18 gecko_sdk_4.3.1/platform/emdrv/nvm3/lib/libnvm3_CM33_gcc.a(nvm3.o)
 .text.findValidPageCnt
                0x000000000800840c       0x3e gecko_sdk_4.3.1/platform/emdrv/nvm3/lib/libnvm3_CM33_gcc.a(nvm3.o)
 .text.erasePage
                0x000000000800844a       0x22 gecko_sdk_4.3.1/platform/emdrv/nvm3/lib/libnvm3_CM33_gcc.a(nvm3.o)
 .text.getPreviousGoodPage
                0x000000000800846c       0x42 gecko_sdk_4.3.1/platform/emdrv/nvm3/lib/libnvm3_CM33_gcc.a(nvm3.o)
 .text.findCurrentEraseCnt
                0x00000000080084ae       0x5e gecko_sdk_4.3.1/platform/emdrv/nvm3/lib/libnvm3_CM33_gcc.a(nvm3.o)
 .text.eraseAllPages
                0x000000000800850c       0x7a gecko_sdk_4.3.1/platform/emdrv/nvm3/lib/libnvm3_CM33_gcc.a(nvm3.o)
 .text.getFirstObjAdrInNextGoodPage
                0x0000000008008586       0x5a gecko_sdk_4.3.1/platform/emdrv/nvm3/lib/libnvm3_CM33_gcc.a(nvm3.o)
 .text.getNextObj
                0x00000000080085e0       0x2e gecko_sdk_4.3.1/platform/emdrv/nvm3/lib/libnvm3_CM33_gcc.a(nvm3.o)
 .text.getFreeSize
                0x000000000800860e       0x64 gecko_sdk_4.3.1/platform/emdrv/nvm3/lib/libnvm3_CM33_gcc.a(nvm3.o)
 .text.findNumberOfUnusedPages
                0x0000000008008672       0x52 gecko_sdk_4.3.1/platform/emdrv/nvm3/lib/libnvm3_CM33_gcc.a(nvm3.o)
 .text.cacheUpdateCallback
                0x00000000080086c4       0x12 gecko_sdk_4.3.1/platform/emdrv/nvm3/lib/libnvm3_CM33_gcc.a(nvm3.o)
 .text.validateObj
                0x00000000080086d6       0x24 gecko_sdk_4.3.1/platform/emdrv/nvm3/lib/libnvm3_CM33_gcc.a(nvm3.o)
 .text.eraseFirstPageCallback
                0x00000000080086fa       0x2e gecko_sdk_4.3.1/platform/emdrv/nvm3/lib/libnvm3_CM33_gcc.a(nvm3.o)
 .text.enumScanCacheCallback
                0x0000000008008728       0x36 gecko_sdk_4.3.1/platform/emdrv/nvm3/lib/libnvm3_CM33_gcc.a(nvm3.o)
 .text.eraseFirstPageScanCacheCallback
                0x000000000800875e       0x1c gecko_sdk_4.3.1/platform/emdrv/nvm3/lib/libnvm3_CM33_gcc.a(nvm3.o)
 .text.workEnd.isra.0
                0x000000000800877a       0x10 gecko_sdk_4.3.1/platform/emdrv/nvm3/lib/libnvm3_CM33_gcc.a(nvm3.o)
 .text.counterIdxToAdr.isra.0
                0x000000000800878a       0x66 gecko_sdk_4.3.1/platform/emdrv/nvm3/lib/libnvm3_CM33_gcc.a(nvm3.o)
 .text.counterIncFldGet
                0x00000000080087f0       0x40 gecko_sdk_4.3.1/platform/emdrv/nvm3/lib/libnvm3_CM33_gcc.a(nvm3.o)
 .text.readCounter
                0x0000000008008830      0x18e gecko_sdk_4.3.1/platform/emdrv/nvm3/lib/libnvm3_CM33_gcc.a(nvm3.o)
 .text.nvm3_enumObjects
                0x00000000080089be       0x12 gecko_sdk_4.3.1/platform/emdrv/nvm3/lib/libnvm3_CM33_gcc.a(nvm3.o)
                0x00000000080089be                nvm3_enumObjects
 .text.nvm3_enumDeletedObjects
                0x00000000080089d0       0x12 gecko_sdk_4.3.1/platform/emdrv/nvm3/lib/libnvm3_CM33_gcc.a(nvm3.o)
                0x00000000080089d0                nvm3_enumDeletedObjects
 .text.nvm3_repackNeeded
                0x00000000080089e2       0x34 gecko_sdk_4.3.1/platform/emdrv/nvm3/lib/libnvm3_CM33_gcc.a(nvm3.o)
                0x00000000080089e2                nvm3_repackNeeded
 .text.nvm3_cacheClear
                0x0000000008008a16       0x24 gecko_sdk_4.3.1/platform/emdrv/nvm3/lib/libnvm3_CM33_gcc.a(nvm3_cache.o)
                0x0000000008008a16                nvm3_cacheClear
 .text.nvm3_cacheOpen
                0x0000000008008a3a        0x8 gecko_sdk_4.3.1/platform/emdrv/nvm3/lib/libnvm3_CM33_gcc.a(nvm3_cache.o)
                0x0000000008008a3a                nvm3_cacheOpen
 .text.nvm3_cacheDelete
                0x0000000008008a42       0x30 gecko_sdk_4.3.1/platform/emdrv/nvm3/lib/libnvm3_CM33_gcc.a(nvm3_cache.o)
                0x0000000008008a42                nvm3_cacheDelete
 .text.nvm3_cacheGet
                0x0000000008008a72       0x34 gecko_sdk_4.3.1/platform/emdrv/nvm3/lib/libnvm3_CM33_gcc.a(nvm3_cache.o)
                0x0000000008008a72                nvm3_cacheGet
 .text.nvm3_objHdrValidateSmall
                0x0000000008008aa6       0x2a gecko_sdk_4.3.1/platform/emdrv/nvm3/lib/libnvm3_CM33_gcc.a(nvm3_object.o)
                0x0000000008008aa6                nvm3_objHdrValidateSmall
 .text.nvm3_objHdrValidateLarge
                0x0000000008008ad0       0x36 gecko_sdk_4.3.1/platform/emdrv/nvm3/lib/libnvm3_CM33_gcc.a(nvm3_object.o)
                0x0000000008008ad0                nvm3_objHdrValidateLarge
 .text.nvm3_objHdrGetErased
                0x0000000008008b06        0xa gecko_sdk_4.3.1/platform/emdrv/nvm3/lib/libnvm3_CM33_gcc.a(nvm3_object.o)
                0x0000000008008b06                nvm3_objHdrGetErased
 .text.nvm3_objHdrGetFragTyp
                0x0000000008008b10       0x10 gecko_sdk_4.3.1/platform/emdrv/nvm3/lib/libnvm3_CM33_gcc.a(nvm3_object.o)
                0x0000000008008b10                nvm3_objHdrGetFragTyp
 .text.nvm3_objHdrGetKey
                0x0000000008008b20        0x8 gecko_sdk_4.3.1/platform/emdrv/nvm3/lib/libnvm3_CM33_gcc.a(nvm3_object.o)
                0x0000000008008b20                nvm3_objHdrGetKey
 .text.nvm3_objHdrGetHdrIsLarge
                0x0000000008008b28       0x10 gecko_sdk_4.3.1/platform/emdrv/nvm3/lib/libnvm3_CM33_gcc.a(nvm3_object.o)
                0x0000000008008b28                nvm3_objHdrGetHdrIsLarge
 .text.nvm3_objHdrGetHdrLen
                0x0000000008008b38        0xe gecko_sdk_4.3.1/platform/emdrv/nvm3/lib/libnvm3_CM33_gcc.a(nvm3_object.o)
                0x0000000008008b38                nvm3_objHdrGetHdrLen
 .text.nvm3_objHdrGetDatLen
                0x0000000008008b46       0x1e gecko_sdk_4.3.1/platform/emdrv/nvm3/lib/libnvm3_CM33_gcc.a(nvm3_object.o)
                0x0000000008008b46                nvm3_objHdrGetDatLen
 .text.nvm3_objHdrGetType
                0x0000000008008b64        0x8 gecko_sdk_4.3.1/platform/emdrv/nvm3/lib/libnvm3_CM33_gcc.a(nvm3_object.o)
                0x0000000008008b64                nvm3_objHdrGetType
 .text.nvm3_objGroupToType
                0x0000000008008b6c       0x1a gecko_sdk_4.3.1/platform/emdrv/nvm3/lib/libnvm3_CM33_gcc.a(nvm3_object.o)
                0x0000000008008b6c                nvm3_objGroupToType
 .text.nvm3_utilsComputeBergerCode
                0x0000000008008b86       0x3c gecko_sdk_4.3.1/platform/emdrv/nvm3/lib/libnvm3_CM33_gcc.a(nvm3_utils.o)
                0x0000000008008b86                nvm3_utilsComputeBergerCode
 .text.nvm3_pageSetBad
                0x0000000008008bc2       0x26 gecko_sdk_4.3.1/platform/emdrv/nvm3/lib/libnvm3_CM33_gcc.a(nvm3_page.o)
                0x0000000008008bc2                nvm3_pageSetBad
 .text.nvm3_pageSetEip
                0x0000000008008be8       0x3e gecko_sdk_4.3.1/platform/emdrv/nvm3/lib/libnvm3_CM33_gcc.a(nvm3_page.o)
                0x0000000008008be8                nvm3_pageSetEip
 .text.nvm3_pageGetEraseCnt
                0x0000000008008c26       0x52 gecko_sdk_4.3.1/platform/emdrv/nvm3/lib/libnvm3_CM33_gcc.a(nvm3_page.o)
                0x0000000008008c26                nvm3_pageGetEraseCnt
 .text.nvm3_pageGetState
                0x0000000008008c78       0x4a gecko_sdk_4.3.1/platform/emdrv/nvm3/lib/libnvm3_CM33_gcc.a(nvm3_page.o)
                0x0000000008008c78                nvm3_pageGetState
 .text.nvm3_pageStateIsGood
                0x0000000008008cc2        0xa gecko_sdk_4.3.1/platform/emdrv/nvm3/lib/libnvm3_CM33_gcc.a(nvm3_page.o)
                0x0000000008008cc2                nvm3_pageStateIsGood
 .text.nvm3_pageStateIsInvalid
                0x0000000008008ccc        0xc gecko_sdk_4.3.1/platform/emdrv/nvm3/lib/libnvm3_CM33_gcc.a(nvm3_page.o)
                0x0000000008008ccc                nvm3_pageStateIsInvalid
 .text.nvm3_pageGetFirstObj
                0x0000000008008cd8        0x4 gecko_sdk_4.3.1/platform/emdrv/nvm3/lib/libnvm3_CM33_gcc.a(nvm3_page.o)
                0x0000000008008cd8                nvm3_pageGetFirstObj
 .text.nvm3_pageErase
                0x0000000008008cdc       0x34 gecko_sdk_4.3.1/platform/emdrv/nvm3/lib/libnvm3_CM33_gcc.a(nvm3_page.o)
                0x0000000008008cdc                nvm3_pageErase
                0x0000000008008d10                linker_code_end = .
 *(.init)
 .init          0x0000000008008d10        0x4 /Applications/Simplicity Studio.app/Contents/Eclipse/developer/toolchains/gnu_arm/10.3_2021.10/bin/../lib/gcc/arm-none-eabi/10.3.1/thumb/v8-m.main+fp/hard/crti.o
                0x0000000008008d10                _init
 .init          0x0000000008008d14        0x8 /Applications/Simplicity Studio.app/Contents/Eclipse/developer/toolchains/gnu_arm/10.3_2021.10/bin/../lib/gcc/arm-none-eabi/10.3.1/thumb/v8-m.main+fp/hard/crtn.o
 *(.fini)
 .fini          0x0000000008008d1c        0x4 /Applications/Simplicity Studio.app/Contents/Eclipse/developer/toolchains/gnu_arm/10.3_2021.10/bin/../lib/gcc/arm-none-eabi/10.3.1/thumb/v8-m.main+fp/hard/crti.o
                0x0000000008008d1c                _fini
 .fini          0x0000000008008d20        0x8 /Applications/Simplicity Studio.app/Contents/Eclipse/developer/toolchains/gnu_arm/10.3_2021.10/bin/../lib/gcc/arm-none-eabi/10.3.1/thumb/v8-m.main+fp/hard/crtn.o
 .fini.__stub   0x0000000008008d28       0x20 linker stubs
 *crtbegin.o(.ctors)
 *crtbegin?.o(.ctors)
 *(EXCLUDE_FILE(*crtend.o *crtend?.o) .ctors)
 *(SORT_BY_NAME(.ctors.*))
 *(.ctors)
 *crtbegin.o(.dtors)
 *crtbegin?.o(.dtors)
 *(EXCLUDE_FILE(*crtend.o *crtend?.o) .dtors)
 *(SORT_BY_NAME(.dtors.*))
 *(.dtors)
 *(.rodata*)
 .rodata.str1.1
                0x0000000008008d48       0xb3 vscode-build/obj/autogen/sl_cli_command_table.o
                                         0xb4 (size before relaxing)
 *fill*         0x0000000008008dfb        0x1 
 .rodata.cli_cmd__delete
                0x0000000008008dfc        0xe vscode-build/obj/autogen/sl_cli_command_table.o
 *fill*         0x0000000008008e0a        0x2 
 .rodata.cli_cmd__display
                0x0000000008008e0c        0xd vscode-build/obj/autogen/sl_cli_command_table.o
 *fill*         0x0000000008008e19        0x3 
 .rodata.cli_cmd__read
                0x0000000008008e1c        0xe vscode-build/obj/autogen/sl_cli_command_table.o
 *fill*         0x0000000008008e2a        0x2 
 .rodata.cli_cmd__reset
                0x0000000008008e2c        0xd vscode-build/obj/autogen/sl_cli_command_table.o
 *fill*         0x0000000008008e39        0x3 
 .rodata.cli_cmd__write
                0x0000000008008e3c        0xf vscode-build/obj/autogen/sl_cli_command_table.o
 *fill*         0x0000000008008e4b        0x1 
 .rodata.sl_cli_default_command_table
                0x0000000008008e4c       0x48 vscode-build/obj/autogen/sl_cli_command_table.o
                0x0000000008008e4c                sl_cli_default_command_table
 .rodata.sl_cli_instances_init.str1.1
                0x0000000008008e94       0x12 vscode-build/obj/autogen/sl_cli_instances.o
 .rodata.sl_iostream_eusart_init_vcom.str1.1
                0x0000000008008ea6       0x2c vscode-build/obj/autogen/sl_iostream_init_eusart_instances.o
 *fill*         0x0000000008008ed2        0x2 
 .rodata        0x0000000008008ed4       0x20 vscode-build/obj/autogen/sl_iostream_init_eusart_instances.o
 .rodata        0x0000000008008ef4       0x1c vscode-build/obj/gecko_sdk_4.3.1/hardware/driver/mx25_flash_shutdown/src/sl_mx25_flash_shutdown_usart/sl_mx25_flash_shutdown.o
 .rodata.sl_slist_push.str1.1
                0x0000000008008f10       0x2f vscode-build/obj/gecko_sdk_4.3.1/platform/common/src/sl_slist.o
 .rodata        0x0000000008008f3f        0x4 vscode-build/obj/gecko_sdk_4.3.1/platform/emdrv/dmadrv/src/dmadrv.o
 *fill*         0x0000000008008f43        0x1 
 .rodata.nvm3_halFlashHandle
                0x0000000008008f44       0x1c vscode-build/obj/gecko_sdk_4.3.1/platform/emdrv/nvm3/src/nvm3_hal_flash.o
                0x0000000008008f44                nvm3_halFlashHandle
 .rodata.nvm3_maxFragmentCount
                0x0000000008008f60        0x1 vscode-build/obj/gecko_sdk_4.3.1/platform/emdrv/nvm3/src/nvm3_lock.o
                0x0000000008008f60                nvm3_maxFragmentCount
 *fill*         0x0000000008008f61        0x3 
 .rodata.nvm3_objHandleSize
                0x0000000008008f64        0x4 vscode-build/obj/gecko_sdk_4.3.1/platform/emdrv/nvm3/src/nvm3_lock.o
                0x0000000008008f64                nvm3_objHandleSize
 .rodata.HFRCODPLLDevinfoGet.str1.1
                0x0000000008008f68       0x2c vscode-build/obj/gecko_sdk_4.3.1/platform/emlib/src/em_cmu.o
 .rodata.EMU_VScaleEM01.str1.1
                0x0000000008008f94       0x2c vscode-build/obj/gecko_sdk_4.3.1/platform/emlib/src/em_emu.o
 .rodata.EUSART_Enable.str1.1
                0x0000000008008fc0       0x2f vscode-build/obj/gecko_sdk_4.3.1/platform/emlib/src/em_eusart.o
 .rodata.GPIO_PinOutSet.str1.1
                0x0000000008008fef       0x2d vscode-build/obj/gecko_sdk_4.3.1/platform/emlib/src/em_gpio.o
 .rodata.GPIO_ExtIntConfig.str1.1
                0x000000000800901c       0x2d vscode-build/obj/gecko_sdk_4.3.1/platform/emlib/src/em_gpio.o
 .rodata.LDMA_EnableChannelRequest.str1.1
                0x0000000008009049       0x59 vscode-build/obj/gecko_sdk_4.3.1/platform/emlib/src/em_ldma.o
 .rodata.str1.1
                0x00000000080090a2       0x2c vscode-build/obj/gecko_sdk_4.3.1/platform/emlib/src/em_msc.o
 .rodata.USART_BaudrateAsyncSet.str1.1
                0x00000000080090ce       0x2e vscode-build/obj/gecko_sdk_4.3.1/platform/emlib/src/em_usart.o
 .rodata.sl_cli_clear.str1.1
                0x00000000080090fc        0x3 vscode-build/obj/gecko_sdk_4.3.1/platform/service/cli/src/sl_cli.o
 .rodata.sl_cli_handle_input.str1.1
                0x00000000080090ff       0x12 vscode-build/obj/gecko_sdk_4.3.1/platform/service/cli/src/sl_cli.o
 .rodata.sli_cli_tick.str1.1
                0x0000000008009111       0x12 vscode-build/obj/gecko_sdk_4.3.1/platform/service/cli/src/sl_cli.o
                                          0x3 (size before relaxing)
 .rodata.str1.1
                0x0000000008009111       0x94 vscode-build/obj/gecko_sdk_4.3.1/platform/service/cli/src/sl_cli.o
                                         0x95 (size before relaxing)
 *fill*         0x00000000080091a5        0x3 
 .rodata.CSWTCH.4
                0x00000000080091a8       0xb8 vscode-build/obj/gecko_sdk_4.3.1/platform/service/cli/src/sl_cli.o
 .rodata.print_and_pad.str1.1
                0x0000000008009260       0x94 vscode-build/obj/gecko_sdk_4.3.1/platform/service/cli/src/sl_cli_command.o
                                          0x2 (size before relaxing)
 .rodata.cmd_help_command.str1.1
                0x0000000008009260       0x76 vscode-build/obj/gecko_sdk_4.3.1/platform/service/cli/src/sl_cli_command.o
                                         0xa7 (size before relaxing)
 .rodata.sl_cli_command_find_matches.str1.1
                0x00000000080092d6        0x5 vscode-build/obj/gecko_sdk_4.3.1/platform/service/cli/src/sl_cli_command.o
 .rodata.sl_cli_command_find.str1.1
                0x00000000080092db        0x5 vscode-build/obj/gecko_sdk_4.3.1/platform/service/cli/src/sl_cli_command.o
 .rodata.sl_cli_input_autocomplete.str1.1
                0x00000000080092e0        0x9 vscode-build/obj/gecko_sdk_4.3.1/platform/service/cli/src/sl_cli_input.o
                                          0xc (size before relaxing)
 .rodata.sl_cli_input_char.str1.1
                0x00000000080092e9        0x9 vscode-build/obj/gecko_sdk_4.3.1/platform/service/cli/src/sl_cli_input.o
 .rodata        0x00000000080092f2        0x7 vscode-build/obj/gecko_sdk_4.3.1/platform/service/device_init/src/sl_device_init_dcdc_s2.o
 *fill*         0x00000000080092f9        0x3 
 .rodata        0x00000000080092fc       0x28 vscode-build/obj/gecko_sdk_4.3.1/platform/service/device_init/src/sl_device_init_hfxo_s2.o
 .rodata        0x0000000008009324       0x14 vscode-build/obj/gecko_sdk_4.3.1/platform/service/device_init/src/sl_device_init_lfxo_s2.o
 .rodata._write.str1.1
                0x0000000008009338       0x4b vscode-build/obj/gecko_sdk_4.3.1/platform/service/iostream/src/sl_iostream_retarget_stdio.o
 .rodata.get_write_ptr.str1.1
                0x0000000008009383       0x41 vscode-build/obj/gecko_sdk_4.3.1/platform/service/iostream/src/sl_iostream_uart.o
 .rodata.sl_udelay_wait.str1.1
                0x00000000080093c4       0x38 vscode-build/obj/gecko_sdk_4.3.1/platform/service/udelay/src/sl_udelay.o
 .rodata.nvm3_app_write.str1.1
                0x00000000080093fc       0x58 vscode-build/obj/nvm3_app.o
 .rodata.nvm3_app_delete.str1.1
                0x0000000008009454       0x2e vscode-build/obj/nvm3_app.o
 .rodata.nvm3_app_read.str1.1
                0x0000000008009482       0x5e vscode-build/obj/nvm3_app.o
                                         0x63 (size before relaxing)
 .rodata.nvm3_app_display.str1.1
                0x00000000080094e0      0x10a vscode-build/obj/nvm3_app.o
 .rodata.nvm3_app_reset.str1.1
                0x00000000080095ea       0x22 vscode-build/obj/nvm3_app.o
 .rodata.nvm3_app_init.str1.1
                0x000000000800960c       0x51 vscode-build/obj/nvm3_app.o
 .rodata.nvm3_app_process_action.str1.1
                0x000000000800965d       0x12 vscode-build/obj/nvm3_app.o
 .rodata._ctype_
                0x000000000800966f      0x101 /Applications/Simplicity Studio.app/Contents/Eclipse/developer/toolchains/gnu_arm/10.3_2021.10/bin/../lib/gcc/arm-none-eabi/10.3.1/../../../../arm-none-eabi/lib/thumb/v8-m.main+fp/hard/libc_nano.a(lib_a-ctype_.o)
                0x000000000800966f                _ctype_
 .rodata._global_impure_ptr
                0x0000000008009770        0x4 /Applications/Simplicity Studio.app/Contents/Eclipse/developer/toolchains/gnu_arm/10.3_2021.10/bin/../lib/gcc/arm-none-eabi/10.3.1/../../../../arm-none-eabi/lib/thumb/v8-m.main+fp/hard/libc_nano.a(lib_a-impure.o)
                0x0000000008009770                _global_impure_ptr
 .rodata.__sf_fake_stderr
                0x0000000008009774       0x20 /Applications/Simplicity Studio.app/Contents/Eclipse/developer/toolchains/gnu_arm/10.3_2021.10/bin/../lib/gcc/arm-none-eabi/10.3.1/../../../../arm-none-eabi/lib/thumb/v8-m.main+fp/hard/libc_nano.a(lib_a-findfp.o)
                0x0000000008009774                __sf_fake_stderr
 .rodata.__sf_fake_stdin
                0x0000000008009794       0x20 /Applications/Simplicity Studio.app/Contents/Eclipse/developer/toolchains/gnu_arm/10.3_2021.10/bin/../lib/gcc/arm-none-eabi/10.3.1/../../../../arm-none-eabi/lib/thumb/v8-m.main+fp/hard/libc_nano.a(lib_a-findfp.o)
                0x0000000008009794                __sf_fake_stdin
 .rodata.__sf_fake_stdout
                0x00000000080097b4       0x20 /Applications/Simplicity Studio.app/Contents/Eclipse/developer/toolchains/gnu_arm/10.3_2021.10/bin/../lib/gcc/arm-none-eabi/10.3.1/../../../../arm-none-eabi/lib/thumb/v8-m.main+fp/hard/libc_nano.a(lib_a-findfp.o)
                0x00000000080097b4                __sf_fake_stdout
 .rodata._vfprintf_r.str1.1
                0x00000000080097d4       0x11 /Applications/Simplicity Studio.app/Contents/Eclipse/developer/toolchains/gnu_arm/10.3_2021.10/bin/../lib/gcc/arm-none-eabi/10.3.1/../../../../arm-none-eabi/lib/thumb/v8-m.main+fp/hard/libc_nano.a(lib_a-nano-vfprintf.o)
 .rodata._printf_i.str1.1
                0x00000000080097e5       0x22 /Applications/Simplicity Studio.app/Contents/Eclipse/developer/toolchains/gnu_arm/10.3_2021.10/bin/../lib/gcc/arm-none-eabi/10.3.1/../../../../arm-none-eabi/lib/thumb/v8-m.main+fp/hard/libc_nano.a(lib_a-nano-vfprintf_i.o)
 .rodata.CSWTCH.30
                0x0000000008009807        0x7 gecko_sdk_4.3.1/platform/emdrv/nvm3/lib/libnvm3_CM33_gcc.a(nvm3_object.o)
 *(.eh_frame*)
 *fill*         0x000000000800980e        0x2 
 .eh_frame      0x0000000008009810        0x0 /Applications/Simplicity Studio.app/Contents/Eclipse/developer/toolchains/gnu_arm/10.3_2021.10/bin/../lib/gcc/arm-none-eabi/10.3.1/thumb/v8-m.main+fp/hard/crtbegin.o

.glue_7         0x0000000008009810        0x0
 .glue_7        0x0000000008009810        0x0 linker stubs

.glue_7t        0x0000000008009810        0x0
 .glue_7t       0x0000000008009810        0x0 linker stubs

.vfp11_veneer   0x0000000008009810        0x0
 .vfp11_veneer  0x0000000008009810        0x0 linker stubs

.v4_bx          0x0000000008009810        0x0
 .v4_bx         0x0000000008009810        0x0 linker stubs

.iplt           0x0000000008009810        0x0
 .iplt          0x0000000008009810        0x0 /Applications/Simplicity Studio.app/Contents/Eclipse/developer/toolchains/gnu_arm/10.3_2021.10/bin/../lib/gcc/arm-none-eabi/10.3.1/thumb/v8-m.main+fp/hard/crtbegin.o

.ARM.extab
 *(.ARM.extab* .gnu.linkonce.armextab.*)
                0x0000000008009810                __exidx_start = .

.ARM.exidx      0x0000000008009810        0x8
 *(.ARM.exidx* .gnu.linkonce.armexidx.*)
 .ARM.exidx     0x0000000008009810        0x8 /Applications/Simplicity Studio.app/Contents/Eclipse/developer/toolchains/gnu_arm/10.3_2021.10/bin/../lib/gcc/arm-none-eabi/10.3.1/../../../../arm-none-eabi/lib/thumb/v8-m.main+fp/hard/crt0.o
                                         0x10 (size before relaxing)
 .ARM.exidx     0x0000000008009818        0x0 /Applications/Simplicity Studio.app/Contents/Eclipse/developer/toolchains/gnu_arm/10.3_2021.10/bin/../lib/gcc/arm-none-eabi/10.3.1/thumb/v8-m.main+fp/hard/libgcc.a(_udivmoddi4.o)
                                          0x8 (size before relaxing)
                0x0000000008009818                __exidx_end = .

.rel.dyn        0x0000000008009818        0x0
 .rel.iplt      0x0000000008009818        0x0 /Applications/Simplicity Studio.app/Contents/Eclipse/developer/toolchains/gnu_arm/10.3_2021.10/bin/../lib/gcc/arm-none-eabi/10.3.1/thumb/v8-m.main+fp/hard/crtbegin.o

.copy.table     0x0000000008009818        0xc
                0x0000000008009818                . = ALIGN (0x4)
                0x0000000008009818                __copy_table_start__ = .
                0x0000000008009818        0x4 LONG 0x8009824 __etext
                0x000000000800981c        0x4 LONG 0x20001000 __data_start__
                0x0000000008009820        0x4 LONG 0xae ((__data_end__ - __data_start__) / 0x4)
                0x0000000008009824                __copy_table_end__ = .

.zero.table     0x0000000008009824        0x0
                0x0000000008009824                . = ALIGN (0x4)
                0x0000000008009824                __zero_table_start__ = .
                0x0000000008009824                __zero_table_end__ = .
                0x0000000008009824                __etext = .
                0x0000000020000000                . = ORIGIN (RAM)

.stack          0x0000000020000000     0x1000
                0x0000000020000000                __StackLimit = .
 *(.stack*)
 .stack         0x0000000020000000     0x1000 vscode-build/obj/gecko_sdk_4.3.1/platform/common/toolchain/src/sl_memory.o
                0x0000000020001000                . = ALIGN (0x4)
                0x0000000020001000                __StackTop = .
                0x0000000020001000                PROVIDE (__stack = __StackTop)

.noinit
 *(.noinit*)

.data           0x0000000020001000      0x2b8 load address 0x0000000008009824
                0x0000000020001000                . = ALIGN (0x4)
                0x0000000020001000                __data_start__ = .
 *(vtable)
 *(SORT_BY_ALIGNMENT(.data*))
 .data.sl_cli_vcom_command_group
                0x0000000020001000        0xc vscode-build/obj/autogen/sl_cli_instances.o
                0x0000000020001000                sl_cli_vcom_command_group
 .data.sl_cli_vcom_handle
                0x000000002000100c        0x4 vscode-build/obj/autogen/sl_cli_instances.o
                0x000000002000100c                sl_cli_vcom_handle
 .data.SystemCoreClock
                0x0000000020001010        0x4 vscode-build/obj/gecko_sdk_4.3.1/platform/Device/SiliconLabs/EFR32ZG23/Source/system_efr32zg23.o
                0x0000000020001010                SystemCoreClock
 .data.SystemHFRCODPLLClock
                0x0000000020001014        0x4 vscode-build/obj/gecko_sdk_4.3.1/platform/Device/SiliconLabs/EFR32ZG23/Source/system_efr32zg23.o
 .data.SystemHFXOClock
                0x0000000020001018        0x4 vscode-build/obj/gecko_sdk_4.3.1/platform/Device/SiliconLabs/EFR32ZG23/Source/system_efr32zg23.o
 .data.SystemLFXOClock
                0x000000002000101c        0x4 vscode-build/obj/gecko_sdk_4.3.1/platform/Device/SiliconLabs/EFR32ZG23/Source/system_efr32zg23.o
 .data.heap_end.0
                0x0000000020001020        0x4 vscode-build/obj/gecko_sdk_4.3.1/platform/common/toolchain/src/sl_memory.o
 .data.nvm3_defaultHandle
                0x0000000020001024        0x4 vscode-build/obj/gecko_sdk_4.3.1/platform/emdrv/nvm3/src/nvm3_default_common_linker.o
                0x0000000020001024                nvm3_defaultHandle
 .data.nvm3_defaultInit
                0x0000000020001028        0x4 vscode-build/obj/gecko_sdk_4.3.1/platform/emdrv/nvm3/src/nvm3_default_common_linker.o
                0x0000000020001028                nvm3_defaultInit
 .data.nvm3_defaultInitData
                0x000000002000102c       0x1c vscode-build/obj/gecko_sdk_4.3.1/platform/emdrv/nvm3/src/nvm3_default_common_linker.o
                0x000000002000102c                nvm3_defaultInitData
 .data._impure_ptr
                0x0000000020001048        0x4 /Applications/Simplicity Studio.app/Contents/Eclipse/developer/toolchains/gnu_arm/10.3_2021.10/bin/../lib/gcc/arm-none-eabi/10.3.1/../../../../arm-none-eabi/lib/thumb/v8-m.main+fp/hard/libc_nano.a(lib_a-impure.o)
                0x0000000020001048                _impure_ptr
 .data.impure_data
                0x000000002000104c       0x60 /Applications/Simplicity Studio.app/Contents/Eclipse/developer/toolchains/gnu_arm/10.3_2021.10/bin/../lib/gcc/arm-none-eabi/10.3.1/../../../../arm-none-eabi/lib/thumb/v8-m.main+fp/hard/libc_nano.a(lib_a-impure.o)
 .data.hfxo_precision
                0x00000000200010ac        0x2 vscode-build/obj/gecko_sdk_4.3.1/platform/emlib/src/em_cmu.o
 .data.lfxo_precision
                0x00000000200010ae        0x2 vscode-build/obj/gecko_sdk_4.3.1/platform/emlib/src/em_cmu.o
 .data.ctuneDelta
                0x00000000200010b0        0x1 vscode-build/obj/gecko_sdk_4.3.1/platform/emlib/src/em_cmu.o
                0x00000000200010b4                . = ALIGN (0x4)
 *fill*         0x00000000200010b1        0x3 
                [!provide]                        PROVIDE (__ram_func_section_start = .)
 *(.ram)
 .ram           0x00000000200010b4      0x1e8 vscode-build/obj/gecko_sdk_4.3.1/platform/emlib/src/em_msc.o
                0x00000000200010b4                mscStatusWait
                0x0000000020001108                MSC_MassErase
                0x0000000020001144                MSC_ErasePage
                0x00000000200011ac                writeBurst
                0x0000000020001200                MSC_WriteWord
 *fill*         0x000000002000129c        0x4 
 .ram.__stub    0x00000000200012a0       0x10 linker stubs
                [!provide]                        PROVIDE (__ram_func_section_end = .)
                0x00000000200012b0                . = ALIGN (0x4)
                0x00000000200012b0                PROVIDE (__preinit_array_start = .)
 *(.preinit_array)
                0x00000000200012b0                PROVIDE (__preinit_array_end = .)
                0x00000000200012b0                . = ALIGN (0x4)
                0x00000000200012b0                PROVIDE (__init_array_start = .)
 *(SORT_BY_NAME(.init_array.*))
 *(.init_array)
 .init_array    0x00000000200012b0        0x4 /Applications/Simplicity Studio.app/Contents/Eclipse/developer/toolchains/gnu_arm/10.3_2021.10/bin/../lib/gcc/arm-none-eabi/10.3.1/thumb/v8-m.main+fp/hard/crtbegin.o
                0x00000000200012b4                PROVIDE (__init_array_end = .)
                0x00000000200012b4                . = ALIGN (0x4)
                [!provide]                        PROVIDE (__fini_array_start = .)
 *(SORT_BY_NAME(.fini_array.*))
 *(.fini_array)
 .fini_array    0x00000000200012b4        0x4 /Applications/Simplicity Studio.app/Contents/Eclipse/developer/toolchains/gnu_arm/10.3_2021.10/bin/../lib/gcc/arm-none-eabi/10.3.1/thumb/v8-m.main+fp/hard/crtbegin.o
                [!provide]                        PROVIDE (__fini_array_end = .)
                0x00000000200012b8                . = ALIGN (0x4)
                0x00000000200012b8                __data_end__ = .

.igot.plt       0x00000000200012b8        0x0 load address 0x0000000008009adc
 .igot.plt      0x00000000200012b8        0x0 /Applications/Simplicity Studio.app/Contents/Eclipse/developer/toolchains/gnu_arm/10.3_2021.10/bin/../lib/gcc/arm-none-eabi/10.3.1/thumb/v8-m.main+fp/hard/crtbegin.o

.bss            0x00000000200012b8      0xdac load address 0x0000000008009adc
                0x00000000200012b8                . = ALIGN (0x4)
                0x00000000200012b8                __bss_start__ = .
 *(SORT_BY_ALIGNMENT(.bss*))
 *fill*         0x00000000200012b8        0x0 
 .bss.nvm3_defaultHandleData
                0x00000000200012b8       0x50 vscode-build/obj/gecko_sdk_4.3.1/platform/emdrv/nvm3/src/nvm3_default_common_linker.o
                0x00000000200012b8                nvm3_defaultHandleData
 .bss           0x0000000020001308       0x1c /Applications/Simplicity Studio.app/Contents/Eclipse/developer/toolchains/gnu_arm/10.3_2021.10/bin/../lib/gcc/arm-none-eabi/10.3.1/thumb/v8-m.main+fp/hard/crtbegin.o
 .bss.sl_cli_vcom
                0x0000000020001324      0x33c vscode-build/obj/autogen/sl_cli_instances.o
 .bss.context_vcom
                0x0000000020001660       0x64 vscode-build/obj/autogen/sl_iostream_init_eusart_instances.o
 .bss.sl_iostream_vcom
                0x00000000200016c4       0x18 vscode-build/obj/autogen/sl_iostream_init_eusart_instances.o
 .bss.chTable   0x00000000200016dc       0x80 vscode-build/obj/gecko_sdk_4.3.1/platform/emdrv/dmadrv/src/dmadrv.o
 .bss.dmaXfer   0x000000002000175c      0x100 vscode-build/obj/gecko_sdk_4.3.1/platform/emdrv/dmadrv/src/dmadrv.o
 .bss.defaultCache
                0x000000002000185c      0x640 vscode-build/obj/gecko_sdk_4.3.1/platform/emdrv/nvm3/src/nvm3_default_common_linker.o
 .bss.irqState  0x0000000020001e9c        0x4 vscode-build/obj/gecko_sdk_4.3.1/platform/emdrv/nvm3/src/nvm3_lock.o
                0x0000000020001e9c                irqState
 .bss.nvm3_internalObjectHandleA
                0x0000000020001ea0       0x2c vscode-build/obj/gecko_sdk_4.3.1/platform/emdrv/nvm3/src/nvm3_lock.o
                0x0000000020001ea0                nvm3_internalObjectHandleA
 .bss.nvm3_internalObjectHandleB
                0x0000000020001ecc       0x2c vscode-build/obj/gecko_sdk_4.3.1/platform/emdrv/nvm3/src/nvm3_lock.o
                0x0000000020001ecc                nvm3_internalObjectHandleB
 .bss.nvm3_internalObjectHandleC
                0x0000000020001ef8       0x2c vscode-build/obj/gecko_sdk_4.3.1/platform/emdrv/nvm3/src/nvm3_lock.o
                0x0000000020001ef8                nvm3_internalObjectHandleC
 .bss.nvm3_internalObjectHandleD
                0x0000000020001f24       0x2c vscode-build/obj/gecko_sdk_4.3.1/platform/emdrv/nvm3/src/nvm3_lock.o
                0x0000000020001f24                nvm3_internalObjectHandleD
 .bss.sl_cli_default_command_group
                0x0000000020001f50        0x4 vscode-build/obj/gecko_sdk_4.3.1/platform/service/cli/src/sl_cli.o
                0x0000000020001f50                sl_cli_default_command_group
 .bss.sl_cli_default_handle
                0x0000000020001f54        0x4 vscode-build/obj/gecko_sdk_4.3.1/platform/service/cli/src/sl_cli.o
                0x0000000020001f54                sl_cli_default_handle
 .bss.sli_iostream_default
                0x0000000020001f58        0x4 vscode-build/obj/gecko_sdk_4.3.1/platform/service/iostream/src/sl_iostream.o
 .bss.__malloc_free_list
                0x0000000020001f5c        0x4 /Applications/Simplicity Studio.app/Contents/Eclipse/developer/toolchains/gnu_arm/10.3_2021.10/bin/../lib/gcc/arm-none-eabi/10.3.1/../../../../arm-none-eabi/lib/thumb/v8-m.main+fp/hard/libc_nano.a(lib_a-nano-mallocr.o)
                0x0000000020001f5c                __malloc_free_list
 .bss.__malloc_sbrk_start
                0x0000000020001f60        0x4 /Applications/Simplicity Studio.app/Contents/Eclipse/developer/toolchains/gnu_arm/10.3_2021.10/bin/../lib/gcc/arm-none-eabi/10.3.1/../../../../arm-none-eabi/lib/thumb/v8-m.main+fp/hard/libc_nano.a(lib_a-nano-mallocr.o)
                0x0000000020001f60                __malloc_sbrk_start
 .bss.errno     0x0000000020001f64        0x4 /Applications/Simplicity Studio.app/Contents/Eclipse/developer/toolchains/gnu_arm/10.3_2021.10/bin/../lib/gcc/arm-none-eabi/10.3.1/../../../../arm-none-eabi/lib/thumb/v8-m.main+fp/hard/libc_nano.a(lib_a-reent.o)
                0x0000000020001f64                errno
 .bss.cfgEraseCnt
                0x0000000020001f68        0x4 gecko_sdk_4.3.1/platform/emdrv/nvm3/lib/libnvm3_CM33_gcc.a(nvm3.o)
 .bss.instanceCnt
                0x0000000020001f6c        0x4 gecko_sdk_4.3.1/platform/emdrv/nvm3/lib/libnvm3_CM33_gcc.a(nvm3.o)
 .bss.rx_buffer_vcom
                0x0000000020001f70       0x20 vscode-build/obj/autogen/sl_iostream_init_eusart_instances.o
 .bss.initialized
                0x0000000020001f90        0x1 vscode-build/obj/gecko_sdk_4.3.1/platform/emdrv/dmadrv/src/dmadrv.o
 .bss.vScaleEM01Config
                0x0000000020001f91        0x1 vscode-build/obj/gecko_sdk_4.3.1/platform/emlib/src/em_emu.o
 .bss.buffer    0x0000000020001f92       0xcc vscode-build/obj/nvm3_app.o
 .bss.__lock___malloc_recursive_mutex
                0x000000002000205e        0x1 /Applications/Simplicity Studio.app/Contents/Eclipse/developer/toolchains/gnu_arm/10.3_2021.10/bin/../lib/gcc/arm-none-eabi/10.3.1/../../../../arm-none-eabi/lib/thumb/v8-m.main+fp/hard/libc_nano.a(lib_a-lock.o)
                0x000000002000205e                __lock___malloc_recursive_mutex
 .bss.__lock___sfp_recursive_mutex
                0x000000002000205f        0x1 /Applications/Simplicity Studio.app/Contents/Eclipse/developer/toolchains/gnu_arm/10.3_2021.10/bin/../lib/gcc/arm-none-eabi/10.3.1/../../../../arm-none-eabi/lib/thumb/v8-m.main+fp/hard/libc_nano.a(lib_a-lock.o)
                0x000000002000205f                __lock___sfp_recursive_mutex
 .bss.__lock___sinit_recursive_mutex
                0x0000000020002060        0x1 /Applications/Simplicity Studio.app/Contents/Eclipse/developer/toolchains/gnu_arm/10.3_2021.10/bin/../lib/gcc/arm-none-eabi/10.3.1/../../../../arm-none-eabi/lib/thumb/v8-m.main+fp/hard/libc_nano.a(lib_a-lock.o)
                0x0000000020002060                __lock___sinit_recursive_mutex
 *(COMMON)
                0x0000000020002064                . = ALIGN (0x4)
 *fill*         0x0000000020002061        0x3 
                0x0000000020002064                __bss_end__ = .

.heap           0x0000000020002068      0x800
                0x0000000020002068                __HeapBase = .
                0x0000000020002068                __end__ = .
                0x0000000020002068                end = __end__
                0x0000000020002068                _end = __end__
 *(.heap*)
 .heap          0x0000000020002068      0x800 vscode-build/obj/gecko_sdk_4.3.1/platform/common/toolchain/src/sl_memory.o
                0x0000000020010000                __HeapLimit = (ORIGIN (RAM) + LENGTH (RAM))
                0x000000000000df98                __heap_size = (__HeapLimit - __HeapBase)
                0x0000000020010000                __ram_end__ = 0x20010000
                0x000000000807e000                __main_flash_end__ = 0x807e000

.internal_storage
                0x0000000008009824        0x0
 *(.internal_storage*)

.nvm            0x0000000008009824     0xa000
 *(.simee*)
 .simee         0x0000000008009824     0xa000 vscode-build/obj/gecko_sdk_4.3.1/platform/emdrv/nvm3/src/nvm3_default_common_linker.o
                0x0000000008009824                nvm3_default_storage
                0x000000000807e000                linker_nvm_end = __main_flash_end__
                0x0000000008074000                linker_nvm_begin = (linker_nvm_end - SIZEOF (.nvm))
                0x000000000000a000                linker_nvm_size = SIZEOF (.nvm)
                0x0000000008074000                linker_storage_end = linker_nvm_begin
                0x0000000008074000                __nvm3Base = linker_nvm_begin
                0x0000000008074000                linker_storage_begin = (linker_storage_end - SIZEOF (.internal_storage))
                0x0000000000000000                linker_storage_size = SIZEOF (.internal_storage)
                0x0000000000000001                ASSERT ((linker_storage_begin >= (__etext + SIZEOF (.data))), FLASH memory overflowed !)
                0x000000000807e000                app_flash_end = 0x807e000
                0x0000000000000001                ASSERT (((linker_nvm_begin + SIZEOF (.nvm)) <= app_flash_end), NVM3 is excessing the flash size !)
OUTPUT(vscode-build/nvm3_baremetal.out elf32-littlearm)
LOAD linker stubs

.ARM.attributes
                0x0000000000000000       0x36
 .ARM.attributes
                0x0000000000000000       0x22 /Applications/Simplicity Studio.app/Contents/Eclipse/developer/toolchains/gnu_arm/10.3_2021.10/bin/../lib/gcc/arm-none-eabi/10.3.1/thumb/v8-m.main+fp/hard/crti.o
 .ARM.attributes
                0x0000000000000022       0x38 /Applications/Simplicity Studio.app/Contents/Eclipse/developer/toolchains/gnu_arm/10.3_2021.10/bin/../lib/gcc/arm-none-eabi/10.3.1/thumb/v8-m.main+fp/hard/crtbegin.o
 .ARM.attributes
                0x000000000000005a       0x20 /Applications/Simplicity Studio.app/Contents/Eclipse/developer/toolchains/gnu_arm/10.3_2021.10/bin/../lib/gcc/arm-none-eabi/10.3.1/../../../../arm-none-eabi/lib/thumb/v8-m.main+fp/hard/crt0.o
 .ARM.attributes
                0x000000000000007a       0x26 vscode-build/obj/gecko_sdk_4.3.1/platform/service/udelay/src/sl_udelay_armv6m_gcc.o
 .ARM.attributes
                0x00000000000000a0       0x3a vscode-build/obj/app.o
 .ARM.attributes
                0x00000000000000da       0x3a vscode-build/obj/autogen/sl_board_default_init.o
 .ARM.attributes
                0x0000000000000114       0x3a vscode-build/obj/autogen/sl_cli_command_table.o
 .ARM.attributes
                0x000000000000014e       0x3a vscode-build/obj/autogen/sl_cli_instances.o
 .ARM.attributes
                0x0000000000000188       0x3a vscode-build/obj/autogen/sl_device_init_clocks.o
 .ARM.attributes
                0x00000000000001c2       0x3a vscode-build/obj/autogen/sl_event_handler.o
 .ARM.attributes
                0x00000000000001fc       0x3a vscode-build/obj/autogen/sl_iostream_init_eusart_instances.o
 .ARM.attributes
                0x0000000000000236       0x3a vscode-build/obj/gecko_sdk_4.3.1/hardware/board/src/sl_board_control_gpio.o
 .ARM.attributes
                0x0000000000000270       0x3a vscode-build/obj/gecko_sdk_4.3.1/hardware/board/src/sl_board_init.o
 .ARM.attributes
                0x00000000000002aa       0x3a vscode-build/obj/gecko_sdk_4.3.1/hardware/driver/configuration_over_swo/src/sl_cos.o
 .ARM.attributes
                0x00000000000002e4       0x3a vscode-build/obj/gecko_sdk_4.3.1/hardware/driver/mx25_flash_shutdown/src/sl_mx25_flash_shutdown_usart/sl_mx25_flash_shutdown.o
 .ARM.attributes
                0x000000000000031e       0x3a vscode-build/obj/gecko_sdk_4.3.1/platform/Device/SiliconLabs/EFR32ZG23/Source/startup_efr32zg23.o
 .ARM.attributes
                0x0000000000000358       0x3a vscode-build/obj/gecko_sdk_4.3.1/platform/Device/SiliconLabs/EFR32ZG23/Source/system_efr32zg23.o
 .ARM.attributes
                0x0000000000000392       0x3a vscode-build/obj/gecko_sdk_4.3.1/platform/common/src/sl_assert.o
 .ARM.attributes
                0x00000000000003cc       0x3a vscode-build/obj/gecko_sdk_4.3.1/platform/common/src/sl_slist.o
 .ARM.attributes
                0x0000000000000406       0x3a vscode-build/obj/gecko_sdk_4.3.1/platform/common/src/sl_string.o
 .ARM.attributes
                0x0000000000000440       0x3a vscode-build/obj/gecko_sdk_4.3.1/platform/common/toolchain/src/sl_memory.o
 .ARM.attributes
                0x000000000000047a       0x3a vscode-build/obj/gecko_sdk_4.3.1/platform/driver/debug/src/sl_debug_swo.o
 .ARM.attributes
                0x00000000000004b4       0x3a vscode-build/obj/gecko_sdk_4.3.1/platform/emdrv/dmadrv/src/dmadrv.o
 .ARM.attributes
                0x00000000000004ee       0x3a vscode-build/obj/gecko_sdk_4.3.1/platform/emdrv/nvm3/src/nvm3_default_common_linker.o
 .ARM.attributes
                0x0000000000000528       0x3a vscode-build/obj/gecko_sdk_4.3.1/platform/emdrv/nvm3/src/nvm3_hal_flash.o
 .ARM.attributes
                0x0000000000000562       0x3a vscode-build/obj/gecko_sdk_4.3.1/platform/emdrv/nvm3/src/nvm3_lock.o
 .ARM.attributes
                0x000000000000059c       0x3a vscode-build/obj/gecko_sdk_4.3.1/platform/emlib/src/em_cmu.o
 .ARM.attributes
                0x00000000000005d6       0x3a vscode-build/obj/gecko_sdk_4.3.1/platform/emlib/src/em_core.o
 .ARM.attributes
                0x0000000000000610       0x3a vscode-build/obj/gecko_sdk_4.3.1/platform/emlib/src/em_emu.o
 .ARM.attributes
                0x000000000000064a       0x3a vscode-build/obj/gecko_sdk_4.3.1/platform/emlib/src/em_eusart.o
 .ARM.attributes
                0x0000000000000684       0x3a vscode-build/obj/gecko_sdk_4.3.1/platform/emlib/src/em_gpio.o
 .ARM.attributes
                0x00000000000006be       0x3a vscode-build/obj/gecko_sdk_4.3.1/platform/emlib/src/em_ldma.o
 .ARM.attributes
                0x00000000000006f8       0x3a vscode-build/obj/gecko_sdk_4.3.1/platform/emlib/src/em_msc.o
 .ARM.attributes
                0x0000000000000732       0x3a vscode-build/obj/gecko_sdk_4.3.1/platform/emlib/src/em_system.o
 .ARM.attributes
                0x000000000000076c       0x3a vscode-build/obj/gecko_sdk_4.3.1/platform/emlib/src/em_usart.o
 .ARM.attributes
                0x00000000000007a6       0x3a vscode-build/obj/gecko_sdk_4.3.1/platform/service/cli/src/sl_cli.o
 .ARM.attributes
                0x00000000000007e0       0x3a vscode-build/obj/gecko_sdk_4.3.1/platform/service/cli/src/sl_cli_arguments.o
 .ARM.attributes
                0x000000000000081a       0x3a vscode-build/obj/gecko_sdk_4.3.1/platform/service/cli/src/sl_cli_command.o
 .ARM.attributes
                0x0000000000000854       0x3a vscode-build/obj/gecko_sdk_4.3.1/platform/service/cli/src/sl_cli_input.o
 .ARM.attributes
                0x000000000000088e       0x3a vscode-build/obj/gecko_sdk_4.3.1/platform/service/cli/src/sl_cli_io.o
 .ARM.attributes
                0x00000000000008c8       0x3a vscode-build/obj/gecko_sdk_4.3.1/platform/service/cli/src/sl_cli_tokenize.o
 .ARM.attributes
                0x0000000000000902       0x3a vscode-build/obj/gecko_sdk_4.3.1/platform/service/device_init/src/sl_device_init_dcdc_s2.o
 .ARM.attributes
                0x000000000000093c       0x3a vscode-build/obj/gecko_sdk_4.3.1/platform/service/device_init/src/sl_device_init_emu_s2.o
 .ARM.attributes
                0x0000000000000976       0x3a vscode-build/obj/gecko_sdk_4.3.1/platform/service/device_init/src/sl_device_init_hfxo_s2.o
 .ARM.attributes
                0x00000000000009b0       0x3a vscode-build/obj/gecko_sdk_4.3.1/platform/service/device_init/src/sl_device_init_lfxo_s2.o
 .ARM.attributes
                0x00000000000009ea       0x3a vscode-build/obj/gecko_sdk_4.3.1/platform/service/device_init/src/sl_device_init_nvic.o
 .ARM.attributes
                0x0000000000000a24       0x3a vscode-build/obj/gecko_sdk_4.3.1/platform/service/iostream/src/sl_iostream.o
 .ARM.attributes
                0x0000000000000a5e       0x3a vscode-build/obj/gecko_sdk_4.3.1/platform/service/iostream/src/sl_iostream_eusart.o
 .ARM.attributes
                0x0000000000000a98       0x3a vscode-build/obj/gecko_sdk_4.3.1/platform/service/iostream/src/sl_iostream_retarget_stdio.o
 .ARM.attributes
                0x0000000000000ad2       0x3a vscode-build/obj/gecko_sdk_4.3.1/platform/service/iostream/src/sl_iostream_stdlib_config.o
 .ARM.attributes
                0x0000000000000b0c       0x3a vscode-build/obj/gecko_sdk_4.3.1/platform/service/iostream/src/sl_iostream_uart.o
 .ARM.attributes
                0x0000000000000b46       0x3a vscode-build/obj/gecko_sdk_4.3.1/platform/service/system/src/sl_system_init.o
 .ARM.attributes
                0x0000000000000b80       0x3a vscode-build/obj/gecko_sdk_4.3.1/platform/service/system/src/sl_system_process_action.o
 .ARM.attributes
                0x0000000000000bba       0x3a vscode-build/obj/gecko_sdk_4.3.1/platform/service/udelay/src/sl_udelay.o
 .ARM.attributes
                0x0000000000000bf4       0x3a vscode-build/obj/main.o
 .ARM.attributes
                0x0000000000000c2e       0x3a vscode-build/obj/nvm3_app.o
 .ARM.attributes
                0x0000000000000c68       0x22 /Applications/Simplicity Studio.app/Contents/Eclipse/developer/toolchains/gnu_arm/10.3_2021.10/bin/../lib/gcc/arm-none-eabi/10.3.1/thumb/v8-m.main+fp/hard/libgcc.a(_aeabi_uldivmod.o)
 .ARM.attributes
                0x0000000000000c8a       0x38 /Applications/Simplicity Studio.app/Contents/Eclipse/developer/toolchains/gnu_arm/10.3_2021.10/bin/../lib/gcc/arm-none-eabi/10.3.1/thumb/v8-m.main+fp/hard/libgcc.a(_udivmoddi4.o)
 .ARM.attributes
                0x0000000000000cc2       0x22 /Applications/Simplicity Studio.app/Contents/Eclipse/developer/toolchains/gnu_arm/10.3_2021.10/bin/../lib/gcc/arm-none-eabi/10.3.1/thumb/v8-m.main+fp/hard/libgcc.a(_dvmd_tls.o)
 .ARM.attributes
                0x0000000000000ce4       0x38 /Applications/Simplicity Studio.app/Contents/Eclipse/developer/toolchains/gnu_arm/10.3_2021.10/bin/../lib/gcc/arm-none-eabi/10.3.1/../../../../arm-none-eabi/lib/thumb/v8-m.main+fp/hard/libc_nano.a(lib_a-ctype_.o)
 .ARM.attributes
                0x0000000000000d1c       0x38 /Applications/Simplicity Studio.app/Contents/Eclipse/developer/toolchains/gnu_arm/10.3_2021.10/bin/../lib/gcc/arm-none-eabi/10.3.1/../../../../arm-none-eabi/lib/thumb/v8-m.main+fp/hard/libc_nano.a(lib_a-exit.o)
 .ARM.attributes
                0x0000000000000d54       0x38 /Applications/Simplicity Studio.app/Contents/Eclipse/developer/toolchains/gnu_arm/10.3_2021.10/bin/../lib/gcc/arm-none-eabi/10.3.1/../../../../arm-none-eabi/lib/thumb/v8-m.main+fp/hard/libc_nano.a(lib_a-impure.o)
 .ARM.attributes
                0x0000000000000d8c       0x38 /Applications/Simplicity Studio.app/Contents/Eclipse/developer/toolchains/gnu_arm/10.3_2021.10/bin/../lib/gcc/arm-none-eabi/10.3.1/../../../../arm-none-eabi/lib/thumb/v8-m.main+fp/hard/libc_nano.a(lib_a-init.o)
 .ARM.attributes
                0x0000000000000dc4       0x38 /Applications/Simplicity Studio.app/Contents/Eclipse/developer/toolchains/gnu_arm/10.3_2021.10/bin/../lib/gcc/arm-none-eabi/10.3.1/../../../../arm-none-eabi/lib/thumb/v8-m.main+fp/hard/libc_nano.a(lib_a-memcmp.o)
 .ARM.attributes
                0x0000000000000dfc       0x38 /Applications/Simplicity Studio.app/Contents/Eclipse/developer/toolchains/gnu_arm/10.3_2021.10/bin/../lib/gcc/arm-none-eabi/10.3.1/../../../../arm-none-eabi/lib/thumb/v8-m.main+fp/hard/libc_nano.a(lib_a-memcpy-stub.o)
 .ARM.attributes
                0x0000000000000e34       0x38 /Applications/Simplicity Studio.app/Contents/Eclipse/developer/toolchains/gnu_arm/10.3_2021.10/bin/../lib/gcc/arm-none-eabi/10.3.1/../../../../arm-none-eabi/lib/thumb/v8-m.main+fp/hard/libc_nano.a(lib_a-memmove.o)
 .ARM.attributes
                0x0000000000000e6c       0x38 /Applications/Simplicity Studio.app/Contents/Eclipse/developer/toolchains/gnu_arm/10.3_2021.10/bin/../lib/gcc/arm-none-eabi/10.3.1/../../../../arm-none-eabi/lib/thumb/v8-m.main+fp/hard/libc_nano.a(lib_a-memset.o)
 .ARM.attributes
                0x0000000000000ea4       0x38 /Applications/Simplicity Studio.app/Contents/Eclipse/developer/toolchains/gnu_arm/10.3_2021.10/bin/../lib/gcc/arm-none-eabi/10.3.1/../../../../arm-none-eabi/lib/thumb/v8-m.main+fp/hard/libc_nano.a(lib_a-printf.o)
 .ARM.attributes
                0x0000000000000edc       0x38 /Applications/Simplicity Studio.app/Contents/Eclipse/developer/toolchains/gnu_arm/10.3_2021.10/bin/../lib/gcc/arm-none-eabi/10.3.1/../../../../arm-none-eabi/lib/thumb/v8-m.main+fp/hard/libc_nano.a(lib_a-puts.o)
 .ARM.attributes
                0x0000000000000f14       0x38 /Applications/Simplicity Studio.app/Contents/Eclipse/developer/toolchains/gnu_arm/10.3_2021.10/bin/../lib/gcc/arm-none-eabi/10.3.1/../../../../arm-none-eabi/lib/thumb/v8-m.main+fp/hard/libc_nano.a(lib_a-setvbuf.o)
 .ARM.attributes
                0x0000000000000f4c       0x20 /Applications/Simplicity Studio.app/Contents/Eclipse/developer/toolchains/gnu_arm/10.3_2021.10/bin/../lib/gcc/arm-none-eabi/10.3.1/../../../../arm-none-eabi/lib/thumb/v8-m.main+fp/hard/libc_nano.a(lib_a-strcmp.o)
 .ARM.attributes
                0x0000000000000f6c       0x17 /Applications/Simplicity Studio.app/Contents/Eclipse/developer/toolchains/gnu_arm/10.3_2021.10/bin/../lib/gcc/arm-none-eabi/10.3.1/../../../../arm-none-eabi/lib/thumb/v8-m.main+fp/hard/libc_nano.a(lib_a-strlen.o)
 .ARM.attributes
                0x0000000000000f83       0x38 /Applications/Simplicity Studio.app/Contents/Eclipse/developer/toolchains/gnu_arm/10.3_2021.10/bin/../lib/gcc/arm-none-eabi/10.3.1/../../../../arm-none-eabi/lib/thumb/v8-m.main+fp/hard/libc_nano.a(lib_a-strncmp.o)
 .ARM.attributes
                0x0000000000000fbb       0x38 /Applications/Simplicity Studio.app/Contents/Eclipse/developer/toolchains/gnu_arm/10.3_2021.10/bin/../lib/gcc/arm-none-eabi/10.3.1/../../../../arm-none-eabi/lib/thumb/v8-m.main+fp/hard/libc_nano.a(lib_a-strtol.o)
 .ARM.attributes
                0x0000000000000ff3       0x38 /Applications/Simplicity Studio.app/Contents/Eclipse/developer/toolchains/gnu_arm/10.3_2021.10/bin/../lib/gcc/arm-none-eabi/10.3.1/../../../../arm-none-eabi/lib/thumb/v8-m.main+fp/hard/libc_nano.a(lib_a-strtoll.o)
 .ARM.attributes
                0x000000000000102b       0x38 /Applications/Simplicity Studio.app/Contents/Eclipse/developer/toolchains/gnu_arm/10.3_2021.10/bin/../lib/gcc/arm-none-eabi/10.3.1/../../../../arm-none-eabi/lib/thumb/v8-m.main+fp/hard/libc_nano.a(lib_a-strtoul.o)
 .ARM.attributes
                0x0000000000001063       0x38 /Applications/Simplicity Studio.app/Contents/Eclipse/developer/toolchains/gnu_arm/10.3_2021.10/bin/../lib/gcc/arm-none-eabi/10.3.1/../../../../arm-none-eabi/lib/thumb/v8-m.main+fp/hard/libc_nano.a(lib_a-vprintf.o)
 .ARM.attributes
                0x000000000000109b       0x38 /Applications/Simplicity Studio.app/Contents/Eclipse/developer/toolchains/gnu_arm/10.3_2021.10/bin/../lib/gcc/arm-none-eabi/10.3.1/../../../../arm-none-eabi/lib/thumb/v8-m.main+fp/hard/libc_nano.a(lib_a-wbuf.o)
 .ARM.attributes
                0x00000000000010d3       0x38 /Applications/Simplicity Studio.app/Contents/Eclipse/developer/toolchains/gnu_arm/10.3_2021.10/bin/../lib/gcc/arm-none-eabi/10.3.1/../../../../arm-none-eabi/lib/thumb/v8-m.main+fp/hard/libc_nano.a(lib_a-wsetup.o)
 .ARM.attributes
                0x000000000000110b       0x38 /Applications/Simplicity Studio.app/Contents/Eclipse/developer/toolchains/gnu_arm/10.3_2021.10/bin/../lib/gcc/arm-none-eabi/10.3.1/../../../../arm-none-eabi/lib/thumb/v8-m.main+fp/hard/libc_nano.a(lib_a-errno.o)
 .ARM.attributes
                0x0000000000001143       0x38 /Applications/Simplicity Studio.app/Contents/Eclipse/developer/toolchains/gnu_arm/10.3_2021.10/bin/../lib/gcc/arm-none-eabi/10.3.1/../../../../arm-none-eabi/lib/thumb/v8-m.main+fp/hard/libc_nano.a(lib_a-fflush.o)
 .ARM.attributes
                0x000000000000117b       0x38 /Applications/Simplicity Studio.app/Contents/Eclipse/developer/toolchains/gnu_arm/10.3_2021.10/bin/../lib/gcc/arm-none-eabi/10.3.1/../../../../arm-none-eabi/lib/thumb/v8-m.main+fp/hard/libc_nano.a(lib_a-findfp.o)
 .ARM.attributes
                0x00000000000011b3       0x38 /Applications/Simplicity Studio.app/Contents/Eclipse/developer/toolchains/gnu_arm/10.3_2021.10/bin/../lib/gcc/arm-none-eabi/10.3.1/../../../../arm-none-eabi/lib/thumb/v8-m.main+fp/hard/libc_nano.a(lib_a-fwalk.o)
 .ARM.attributes
                0x00000000000011eb       0x38 /Applications/Simplicity Studio.app/Contents/Eclipse/developer/toolchains/gnu_arm/10.3_2021.10/bin/../lib/gcc/arm-none-eabi/10.3.1/../../../../arm-none-eabi/lib/thumb/v8-m.main+fp/hard/libc_nano.a(lib_a-lock.o)
 .ARM.attributes
                0x0000000000001223       0x38 /Applications/Simplicity Studio.app/Contents/Eclipse/developer/toolchains/gnu_arm/10.3_2021.10/bin/../lib/gcc/arm-none-eabi/10.3.1/../../../../arm-none-eabi/lib/thumb/v8-m.main+fp/hard/libc_nano.a(lib_a-makebuf.o)
 .ARM.attributes
                0x000000000000125b       0x38 /Applications/Simplicity Studio.app/Contents/Eclipse/developer/toolchains/gnu_arm/10.3_2021.10/bin/../lib/gcc/arm-none-eabi/10.3.1/../../../../arm-none-eabi/lib/thumb/v8-m.main+fp/hard/libc_nano.a(lib_a-malloc.o)
 .ARM.attributes
                0x0000000000001293       0x38 /Applications/Simplicity Studio.app/Contents/Eclipse/developer/toolchains/gnu_arm/10.3_2021.10/bin/../lib/gcc/arm-none-eabi/10.3.1/../../../../arm-none-eabi/lib/thumb/v8-m.main+fp/hard/libc_nano.a(lib_a-nano-freer.o)
 .ARM.attributes
                0x00000000000012cb       0x38 /Applications/Simplicity Studio.app/Contents/Eclipse/developer/toolchains/gnu_arm/10.3_2021.10/bin/../lib/gcc/arm-none-eabi/10.3.1/../../../../arm-none-eabi/lib/thumb/v8-m.main+fp/hard/libc_nano.a(lib_a-nano-mallocr.o)
 .ARM.attributes
                0x0000000000001303       0x38 /Applications/Simplicity Studio.app/Contents/Eclipse/developer/toolchains/gnu_arm/10.3_2021.10/bin/../lib/gcc/arm-none-eabi/10.3.1/../../../../arm-none-eabi/lib/thumb/v8-m.main+fp/hard/libc_nano.a(lib_a-nano-vfprintf.o)
 .ARM.attributes
                0x000000000000133b       0x38 /Applications/Simplicity Studio.app/Contents/Eclipse/developer/toolchains/gnu_arm/10.3_2021.10/bin/../lib/gcc/arm-none-eabi/10.3.1/../../../../arm-none-eabi/lib/thumb/v8-m.main+fp/hard/libc_nano.a(lib_a-nano-vfprintf_i.o)
 .ARM.attributes
                0x0000000000001373       0x38 /Applications/Simplicity Studio.app/Contents/Eclipse/developer/toolchains/gnu_arm/10.3_2021.10/bin/../lib/gcc/arm-none-eabi/10.3.1/../../../../arm-none-eabi/lib/thumb/v8-m.main+fp/hard/libc_nano.a(lib_a-sbrkr.o)
 .ARM.attributes
                0x00000000000013ab       0x38 /Applications/Simplicity Studio.app/Contents/Eclipse/developer/toolchains/gnu_arm/10.3_2021.10/bin/../lib/gcc/arm-none-eabi/10.3.1/../../../../arm-none-eabi/lib/thumb/v8-m.main+fp/hard/libc_nano.a(lib_a-stdio.o)
 .ARM.attributes
                0x00000000000013e3       0x38 /Applications/Simplicity Studio.app/Contents/Eclipse/developer/toolchains/gnu_arm/10.3_2021.10/bin/../lib/gcc/arm-none-eabi/10.3.1/../../../../arm-none-eabi/lib/thumb/v8-m.main+fp/hard/libc_nano.a(lib_a-writer.o)
 .ARM.attributes
                0x000000000000141b       0x38 /Applications/Simplicity Studio.app/Contents/Eclipse/developer/toolchains/gnu_arm/10.3_2021.10/bin/../lib/gcc/arm-none-eabi/10.3.1/../../../../arm-none-eabi/lib/thumb/v8-m.main+fp/hard/libc_nano.a(lib_a-closer.o)
 .ARM.attributes
                0x0000000000001453       0x38 /Applications/Simplicity Studio.app/Contents/Eclipse/developer/toolchains/gnu_arm/10.3_2021.10/bin/../lib/gcc/arm-none-eabi/10.3.1/../../../../arm-none-eabi/lib/thumb/v8-m.main+fp/hard/libc_nano.a(lib_a-fstatr.o)
 .ARM.attributes
                0x000000000000148b       0x38 /Applications/Simplicity Studio.app/Contents/Eclipse/developer/toolchains/gnu_arm/10.3_2021.10/bin/../lib/gcc/arm-none-eabi/10.3.1/../../../../arm-none-eabi/lib/thumb/v8-m.main+fp/hard/libc_nano.a(lib_a-isattyr.o)
 .ARM.attributes
                0x00000000000014c3       0x38 /Applications/Simplicity Studio.app/Contents/Eclipse/developer/toolchains/gnu_arm/10.3_2021.10/bin/../lib/gcc/arm-none-eabi/10.3.1/../../../../arm-none-eabi/lib/thumb/v8-m.main+fp/hard/libc_nano.a(lib_a-lseekr.o)
 .ARM.attributes
                0x00000000000014fb       0x38 /Applications/Simplicity Studio.app/Contents/Eclipse/developer/toolchains/gnu_arm/10.3_2021.10/bin/../lib/gcc/arm-none-eabi/10.3.1/../../../../arm-none-eabi/lib/thumb/v8-m.main+fp/hard/libc_nano.a(lib_a-memchr-stub.o)
 .ARM.attributes
                0x0000000000001533       0x38 /Applications/Simplicity Studio.app/Contents/Eclipse/developer/toolchains/gnu_arm/10.3_2021.10/bin/../lib/gcc/arm-none-eabi/10.3.1/../../../../arm-none-eabi/lib/thumb/v8-m.main+fp/hard/libc_nano.a(lib_a-mlock.o)
 .ARM.attributes
                0x000000000000156b       0x38 /Applications/Simplicity Studio.app/Contents/Eclipse/developer/toolchains/gnu_arm/10.3_2021.10/bin/../lib/gcc/arm-none-eabi/10.3.1/../../../../arm-none-eabi/lib/thumb/v8-m.main+fp/hard/libc_nano.a(lib_a-readr.o)
 .ARM.attributes
                0x00000000000015a3       0x38 /Applications/Simplicity Studio.app/Contents/Eclipse/developer/toolchains/gnu_arm/10.3_2021.10/bin/../lib/gcc/arm-none-eabi/10.3.1/../../../../arm-none-eabi/lib/thumb/v8-m.main+fp/hard/libc_nano.a(lib_a-reent.o)
 .ARM.attributes
                0x00000000000015db       0x38 gecko_sdk_4.3.1/platform/emdrv/nvm3/lib/libnvm3_CM33_gcc.a(nvm3.o)
 .ARM.attributes
                0x0000000000001613       0x38 gecko_sdk_4.3.1/platform/emdrv/nvm3/lib/libnvm3_CM33_gcc.a(nvm3_cache.o)
 .ARM.attributes
                0x000000000000164b       0x38 gecko_sdk_4.3.1/platform/emdrv/nvm3/lib/libnvm3_CM33_gcc.a(nvm3_object.o)
 .ARM.attributes
                0x0000000000001683       0x38 gecko_sdk_4.3.1/platform/emdrv/nvm3/lib/libnvm3_CM33_gcc.a(nvm3_utils.o)
 .ARM.attributes
                0x00000000000016bb       0x38 gecko_sdk_4.3.1/platform/emdrv/nvm3/lib/libnvm3_CM33_gcc.a(nvm3_page.o)
 .ARM.attributes
                0x00000000000016f3       0x22 /Applications/Simplicity Studio.app/Contents/Eclipse/developer/toolchains/gnu_arm/10.3_2021.10/bin/../lib/gcc/arm-none-eabi/10.3.1/thumb/v8-m.main+fp/hard/crtn.o

.comment        0x0000000000000000       0x49
 .comment       0x0000000000000000       0x49 vscode-build/obj/app.o
                                         0x4a (size before relaxing)
 .comment       0x0000000000000049       0x4a vscode-build/obj/autogen/sl_board_default_init.o
 .comment       0x0000000000000049       0x4a vscode-build/obj/autogen/sl_cli_command_table.o
 .comment       0x0000000000000049       0x4a vscode-build/obj/autogen/sl_cli_instances.o
 .comment       0x0000000000000049       0x4a vscode-build/obj/autogen/sl_device_init_clocks.o
 .comment       0x0000000000000049       0x4a vscode-build/obj/autogen/sl_event_handler.o
 .comment       0x0000000000000049       0x4a vscode-build/obj/autogen/sl_iostream_init_eusart_instances.o
 .comment       0x0000000000000049       0x4a vscode-build/obj/gecko_sdk_4.3.1/hardware/board/src/sl_board_control_gpio.o
 .comment       0x0000000000000049       0x4a vscode-build/obj/gecko_sdk_4.3.1/hardware/board/src/sl_board_init.o
 .comment       0x0000000000000049       0x4a vscode-build/obj/gecko_sdk_4.3.1/hardware/driver/configuration_over_swo/src/sl_cos.o
 .comment       0x0000000000000049       0x4a vscode-build/obj/gecko_sdk_4.3.1/hardware/driver/mx25_flash_shutdown/src/sl_mx25_flash_shutdown_usart/sl_mx25_flash_shutdown.o
 .comment       0x0000000000000049       0x4a vscode-build/obj/gecko_sdk_4.3.1/platform/Device/SiliconLabs/EFR32ZG23/Source/startup_efr32zg23.o
 .comment       0x0000000000000049       0x4a vscode-build/obj/gecko_sdk_4.3.1/platform/Device/SiliconLabs/EFR32ZG23/Source/system_efr32zg23.o
 .comment       0x0000000000000049       0x4a vscode-build/obj/gecko_sdk_4.3.1/platform/common/src/sl_assert.o
 .comment       0x0000000000000049       0x4a vscode-build/obj/gecko_sdk_4.3.1/platform/common/src/sl_slist.o
 .comment       0x0000000000000049       0x4a vscode-build/obj/gecko_sdk_4.3.1/platform/common/src/sl_string.o
 .comment       0x0000000000000049       0x4a vscode-build/obj/gecko_sdk_4.3.1/platform/common/toolchain/src/sl_memory.o
 .comment       0x0000000000000049       0x4a vscode-build/obj/gecko_sdk_4.3.1/platform/driver/debug/src/sl_debug_swo.o
 .comment       0x0000000000000049       0x4a vscode-build/obj/gecko_sdk_4.3.1/platform/emdrv/dmadrv/src/dmadrv.o
 .comment       0x0000000000000049       0x4a vscode-build/obj/gecko_sdk_4.3.1/platform/emdrv/nvm3/src/nvm3_default_common_linker.o
 .comment       0x0000000000000049       0x4a vscode-build/obj/gecko_sdk_4.3.1/platform/emdrv/nvm3/src/nvm3_hal_flash.o
 .comment       0x0000000000000049       0x4a vscode-build/obj/gecko_sdk_4.3.1/platform/emdrv/nvm3/src/nvm3_lock.o
 .comment       0x0000000000000049       0x4a vscode-build/obj/gecko_sdk_4.3.1/platform/emlib/src/em_cmu.o
 .comment       0x0000000000000049       0x4a vscode-build/obj/gecko_sdk_4.3.1/platform/emlib/src/em_core.o
 .comment       0x0000000000000049       0x4a vscode-build/obj/gecko_sdk_4.3.1/platform/emlib/src/em_emu.o
 .comment       0x0000000000000049       0x4a vscode-build/obj/gecko_sdk_4.3.1/platform/emlib/src/em_eusart.o
 .comment       0x0000000000000049       0x4a vscode-build/obj/gecko_sdk_4.3.1/platform/emlib/src/em_gpio.o
 .comment       0x0000000000000049       0x4a vscode-build/obj/gecko_sdk_4.3.1/platform/emlib/src/em_ldma.o
 .comment       0x0000000000000049       0x4a vscode-build/obj/gecko_sdk_4.3.1/platform/emlib/src/em_msc.o
 .comment       0x0000000000000049       0x4a vscode-build/obj/gecko_sdk_4.3.1/platform/emlib/src/em_system.o
 .comment       0x0000000000000049       0x4a vscode-build/obj/gecko_sdk_4.3.1/platform/emlib/src/em_usart.o
 .comment       0x0000000000000049       0x4a vscode-build/obj/gecko_sdk_4.3.1/platform/service/cli/src/sl_cli.o
 .comment       0x0000000000000049       0x4a vscode-build/obj/gecko_sdk_4.3.1/platform/service/cli/src/sl_cli_arguments.o
 .comment       0x0000000000000049       0x4a vscode-build/obj/gecko_sdk_4.3.1/platform/service/cli/src/sl_cli_command.o
 .comment       0x0000000000000049       0x4a vscode-build/obj/gecko_sdk_4.3.1/platform/service/cli/src/sl_cli_input.o
 .comment       0x0000000000000049       0x4a vscode-build/obj/gecko_sdk_4.3.1/platform/service/cli/src/sl_cli_io.o
 .comment       0x0000000000000049       0x4a vscode-build/obj/gecko_sdk_4.3.1/platform/service/cli/src/sl_cli_tokenize.o
 .comment       0x0000000000000049       0x4a vscode-build/obj/gecko_sdk_4.3.1/platform/service/device_init/src/sl_device_init_dcdc_s2.o
 .comment       0x0000000000000049       0x4a vscode-build/obj/gecko_sdk_4.3.1/platform/service/device_init/src/sl_device_init_emu_s2.o
 .comment       0x0000000000000049       0x4a vscode-build/obj/gecko_sdk_4.3.1/platform/service/device_init/src/sl_device_init_hfxo_s2.o
 .comment       0x0000000000000049       0x4a vscode-build/obj/gecko_sdk_4.3.1/platform/service/device_init/src/sl_device_init_lfxo_s2.o
 .comment       0x0000000000000049       0x4a vscode-build/obj/gecko_sdk_4.3.1/platform/service/device_init/src/sl_device_init_nvic.o
 .comment       0x0000000000000049       0x4a vscode-build/obj/gecko_sdk_4.3.1/platform/service/iostream/src/sl_iostream.o
 .comment       0x0000000000000049       0x4a vscode-build/obj/gecko_sdk_4.3.1/platform/service/iostream/src/sl_iostream_eusart.o
 .comment       0x0000000000000049       0x4a vscode-build/obj/gecko_sdk_4.3.1/platform/service/iostream/src/sl_iostream_retarget_stdio.o
 .comment       0x0000000000000049       0x4a vscode-build/obj/gecko_sdk_4.3.1/platform/service/iostream/src/sl_iostream_stdlib_config.o
 .comment       0x0000000000000049       0x4a vscode-build/obj/gecko_sdk_4.3.1/platform/service/iostream/src/sl_iostream_uart.o
 .comment       0x0000000000000049       0x4a vscode-build/obj/gecko_sdk_4.3.1/platform/service/system/src/sl_system_init.o
 .comment       0x0000000000000049       0x4a vscode-build/obj/gecko_sdk_4.3.1/platform/service/system/src/sl_system_process_action.o
 .comment       0x0000000000000049       0x4a vscode-build/obj/gecko_sdk_4.3.1/platform/service/udelay/src/sl_udelay.o
 .comment       0x0000000000000049       0x4a vscode-build/obj/main.o
 .comment       0x0000000000000049       0x4a vscode-build/obj/nvm3_app.o
 .comment       0x0000000000000049       0x4a gecko_sdk_4.3.1/platform/emdrv/nvm3/lib/libnvm3_CM33_gcc.a(nvm3.o)
 .comment       0x0000000000000049       0x4a gecko_sdk_4.3.1/platform/emdrv/nvm3/lib/libnvm3_CM33_gcc.a(nvm3_cache.o)
 .comment       0x0000000000000049       0x4a gecko_sdk_4.3.1/platform/emdrv/nvm3/lib/libnvm3_CM33_gcc.a(nvm3_object.o)
 .comment       0x0000000000000049       0x4a gecko_sdk_4.3.1/platform/emdrv/nvm3/lib/libnvm3_CM33_gcc.a(nvm3_utils.o)
 .comment       0x0000000000000049       0x4a gecko_sdk_4.3.1/platform/emdrv/nvm3/lib/libnvm3_CM33_gcc.a(nvm3_page.o)

.debug_info     0x0000000000000000    0x3d681
 .debug_info    0x0000000000000000       0x7e vscode-build/obj/app.o
 .debug_info    0x000000000000007e       0x98 vscode-build/obj/autogen/sl_board_default_init.o
 .debug_info    0x0000000000000116      0x4a2 vscode-build/obj/autogen/sl_cli_command_table.o
 .debug_info    0x00000000000005b8      0x68e vscode-build/obj/autogen/sl_cli_instances.o
 .debug_info    0x0000000000000c46     0x1227 vscode-build/obj/autogen/sl_device_init_clocks.o
 .debug_info    0x0000000000001e6d     0x1469 vscode-build/obj/autogen/sl_event_handler.o
 .debug_info    0x00000000000032d6     0x16e5 vscode-build/obj/autogen/sl_iostream_init_eusart_instances.o
 .debug_info    0x00000000000049bb      0x523 vscode-build/obj/gecko_sdk_4.3.1/hardware/board/src/sl_board_control_gpio.o
 .debug_info    0x0000000000004ede      0x2d3 vscode-build/obj/gecko_sdk_4.3.1/hardware/board/src/sl_board_init.o
 .debug_info    0x00000000000051b1      0x3dd vscode-build/obj/gecko_sdk_4.3.1/hardware/driver/configuration_over_swo/src/sl_cos.o
 .debug_info    0x000000000000558e     0x22f7 vscode-build/obj/gecko_sdk_4.3.1/hardware/driver/mx25_flash_shutdown/src/sl_mx25_flash_shutdown_usart/sl_mx25_flash_shutdown.o
 .debug_info    0x0000000000007885      0x2f4 vscode-build/obj/gecko_sdk_4.3.1/platform/Device/SiliconLabs/EFR32ZG23/Source/startup_efr32zg23.o
 .debug_info    0x0000000000007b79     0x20c6 vscode-build/obj/gecko_sdk_4.3.1/platform/Device/SiliconLabs/EFR32ZG23/Source/system_efr32zg23.o
 .debug_info    0x0000000000009c3f       0x7e vscode-build/obj/gecko_sdk_4.3.1/platform/common/src/sl_assert.o
 .debug_info    0x0000000000009cbd      0x3bc vscode-build/obj/gecko_sdk_4.3.1/platform/common/src/sl_slist.o
 .debug_info    0x000000000000a079      0x46c vscode-build/obj/gecko_sdk_4.3.1/platform/common/src/sl_string.o
 .debug_info    0x000000000000a4e5      0x1ed vscode-build/obj/gecko_sdk_4.3.1/platform/common/toolchain/src/sl_memory.o
 .debug_info    0x000000000000a6d2     0x235c vscode-build/obj/gecko_sdk_4.3.1/platform/driver/debug/src/sl_debug_swo.o
 .debug_info    0x000000000000ca2e     0x1c71 vscode-build/obj/gecko_sdk_4.3.1/platform/emdrv/dmadrv/src/dmadrv.o
 .debug_info    0x000000000000e69f      0x5d0 vscode-build/obj/gecko_sdk_4.3.1/platform/emdrv/nvm3/src/nvm3_default_common_linker.o
 .debug_info    0x000000000000ec6f      0x8c7 vscode-build/obj/gecko_sdk_4.3.1/platform/emdrv/nvm3/src/nvm3_hal_flash.o
 .debug_info    0x000000000000f536      0x373 vscode-build/obj/gecko_sdk_4.3.1/platform/emdrv/nvm3/src/nvm3_lock.o
 .debug_info    0x000000000000f8a9     0x9944 vscode-build/obj/gecko_sdk_4.3.1/platform/emlib/src/em_cmu.o
 .debug_info    0x00000000000191ed     0x12fe vscode-build/obj/gecko_sdk_4.3.1/platform/emlib/src/em_core.o
 .debug_info    0x000000000001a4eb     0x353d vscode-build/obj/gecko_sdk_4.3.1/platform/emlib/src/em_emu.o
 .debug_info    0x000000000001da28     0x4fcf vscode-build/obj/gecko_sdk_4.3.1/platform/emlib/src/em_eusart.o
 .debug_info    0x00000000000229f7     0x254e vscode-build/obj/gecko_sdk_4.3.1/platform/emlib/src/em_gpio.o
 .debug_info    0x0000000000024f45     0x1d7a vscode-build/obj/gecko_sdk_4.3.1/platform/emlib/src/em_ldma.o
 .debug_info    0x0000000000026cbf     0x2fdc vscode-build/obj/gecko_sdk_4.3.1/platform/emlib/src/em_msc.o
 .debug_info    0x0000000000029c9b     0x1b6a vscode-build/obj/gecko_sdk_4.3.1/platform/emlib/src/em_system.o
 .debug_info    0x000000000002b805     0x4490 vscode-build/obj/gecko_sdk_4.3.1/platform/emlib/src/em_usart.o
 .debug_info    0x000000000002fc95      0xb71 vscode-build/obj/gecko_sdk_4.3.1/platform/service/cli/src/sl_cli.o
 .debug_info    0x0000000000030806      0xa17 vscode-build/obj/gecko_sdk_4.3.1/platform/service/cli/src/sl_cli_arguments.o
 .debug_info    0x000000000003121d     0x1215 vscode-build/obj/gecko_sdk_4.3.1/platform/service/cli/src/sl_cli_command.o
 .debug_info    0x0000000000032432      0xe75 vscode-build/obj/gecko_sdk_4.3.1/platform/service/cli/src/sl_cli_input.o
 .debug_info    0x00000000000332a7      0x1f2 vscode-build/obj/gecko_sdk_4.3.1/platform/service/cli/src/sl_cli_io.o
 .debug_info    0x0000000000033499      0x225 vscode-build/obj/gecko_sdk_4.3.1/platform/service/cli/src/sl_cli_tokenize.o
 .debug_info    0x00000000000336be      0x33c vscode-build/obj/gecko_sdk_4.3.1/platform/service/device_init/src/sl_device_init_dcdc_s2.o
 .debug_info    0x00000000000339fa      0x9f7 vscode-build/obj/gecko_sdk_4.3.1/platform/service/device_init/src/sl_device_init_emu_s2.o
 .debug_info    0x00000000000343f1      0x7e7 vscode-build/obj/gecko_sdk_4.3.1/platform/service/device_init/src/sl_device_init_hfxo_s2.o
 .debug_info    0x0000000000034bd8      0x24e vscode-build/obj/gecko_sdk_4.3.1/platform/service/device_init/src/sl_device_init_lfxo_s2.o
 .debug_info    0x0000000000034e26      0x7ca vscode-build/obj/gecko_sdk_4.3.1/platform/service/device_init/src/sl_device_init_nvic.o
 .debug_info    0x00000000000355f0      0x5ba vscode-build/obj/gecko_sdk_4.3.1/platform/service/iostream/src/sl_iostream.o
 .debug_info    0x0000000000035baa     0x4093 vscode-build/obj/gecko_sdk_4.3.1/platform/service/iostream/src/sl_iostream_eusart.o
 .debug_info    0x0000000000039c3d      0x567 vscode-build/obj/gecko_sdk_4.3.1/platform/service/iostream/src/sl_iostream_retarget_stdio.o
 .debug_info    0x000000000003a1a4      0x7d2 vscode-build/obj/gecko_sdk_4.3.1/platform/service/iostream/src/sl_iostream_stdlib_config.o
 .debug_info    0x000000000003a976     0x1b5f vscode-build/obj/gecko_sdk_4.3.1/platform/service/iostream/src/sl_iostream_uart.o
 .debug_info    0x000000000003c4d5       0xa6 vscode-build/obj/gecko_sdk_4.3.1/platform/service/system/src/sl_system_init.o
 .debug_info    0x000000000003c57b       0x91 vscode-build/obj/gecko_sdk_4.3.1/platform/service/system/src/sl_system_process_action.o
 .debug_info    0x000000000003c60c      0x16e vscode-build/obj/gecko_sdk_4.3.1/platform/service/udelay/src/sl_udelay.o
 .debug_info    0x000000000003c77a       0x9c vscode-build/obj/main.o
 .debug_info    0x000000000003c816      0xe6b vscode-build/obj/nvm3_app.o

.debug_abbrev   0x0000000000000000     0x6dbd
 .debug_abbrev  0x0000000000000000       0x51 vscode-build/obj/app.o
 .debug_abbrev  0x0000000000000051       0x67 vscode-build/obj/autogen/sl_board_default_init.o
 .debug_abbrev  0x00000000000000b8      0x114 vscode-build/obj/autogen/sl_cli_command_table.o
 .debug_abbrev  0x00000000000001cc      0x203 vscode-build/obj/autogen/sl_cli_instances.o
 .debug_abbrev  0x00000000000003cf      0x100 vscode-build/obj/autogen/sl_device_init_clocks.o
 .debug_abbrev  0x00000000000004cf      0x1bc vscode-build/obj/autogen/sl_event_handler.o
 .debug_abbrev  0x000000000000068b      0x287 vscode-build/obj/autogen/sl_iostream_init_eusart_instances.o
 .debug_abbrev  0x0000000000000912      0x15c vscode-build/obj/gecko_sdk_4.3.1/hardware/board/src/sl_board_control_gpio.o
 .debug_abbrev  0x0000000000000a6e       0xd3 vscode-build/obj/gecko_sdk_4.3.1/hardware/board/src/sl_board_init.o
 .debug_abbrev  0x0000000000000b41      0x204 vscode-build/obj/gecko_sdk_4.3.1/hardware/driver/configuration_over_swo/src/sl_cos.o
 .debug_abbrev  0x0000000000000d45      0x22d vscode-build/obj/gecko_sdk_4.3.1/hardware/driver/mx25_flash_shutdown/src/sl_mx25_flash_shutdown_usart/sl_mx25_flash_shutdown.o
 .debug_abbrev  0x0000000000000f72      0x1c6 vscode-build/obj/gecko_sdk_4.3.1/platform/Device/SiliconLabs/EFR32ZG23/Source/startup_efr32zg23.o
 .debug_abbrev  0x0000000000001138      0x338 vscode-build/obj/gecko_sdk_4.3.1/platform/Device/SiliconLabs/EFR32ZG23/Source/system_efr32zg23.o
 .debug_abbrev  0x0000000000001470       0x6a vscode-build/obj/gecko_sdk_4.3.1/platform/common/src/sl_assert.o
 .debug_abbrev  0x00000000000014da      0x144 vscode-build/obj/gecko_sdk_4.3.1/platform/common/src/sl_slist.o
 .debug_abbrev  0x000000000000161e      0x223 vscode-build/obj/gecko_sdk_4.3.1/platform/common/src/sl_string.o
 .debug_abbrev  0x0000000000001841      0x11c vscode-build/obj/gecko_sdk_4.3.1/platform/common/toolchain/src/sl_memory.o
 .debug_abbrev  0x000000000000195d      0x2d4 vscode-build/obj/gecko_sdk_4.3.1/platform/driver/debug/src/sl_debug_swo.o
 .debug_abbrev  0x0000000000001c31      0x383 vscode-build/obj/gecko_sdk_4.3.1/platform/emdrv/dmadrv/src/dmadrv.o
 .debug_abbrev  0x0000000000001fb4      0x159 vscode-build/obj/gecko_sdk_4.3.1/platform/emdrv/nvm3/src/nvm3_default_common_linker.o
 .debug_abbrev  0x000000000000210d      0x2dd vscode-build/obj/gecko_sdk_4.3.1/platform/emdrv/nvm3/src/nvm3_hal_flash.o
 .debug_abbrev  0x00000000000023ea      0x128 vscode-build/obj/gecko_sdk_4.3.1/platform/emdrv/nvm3/src/nvm3_lock.o
 .debug_abbrev  0x0000000000002512      0x51d vscode-build/obj/gecko_sdk_4.3.1/platform/emlib/src/em_cmu.o
 .debug_abbrev  0x0000000000002a2f      0x30e vscode-build/obj/gecko_sdk_4.3.1/platform/emlib/src/em_core.o
 .debug_abbrev  0x0000000000002d3d      0x47b vscode-build/obj/gecko_sdk_4.3.1/platform/emlib/src/em_emu.o
 .debug_abbrev  0x00000000000031b8      0x41b vscode-build/obj/gecko_sdk_4.3.1/platform/emlib/src/em_eusart.o
 .debug_abbrev  0x00000000000035d3      0x317 vscode-build/obj/gecko_sdk_4.3.1/platform/emlib/src/em_gpio.o
 .debug_abbrev  0x00000000000038ea      0x403 vscode-build/obj/gecko_sdk_4.3.1/platform/emlib/src/em_ldma.o
 .debug_abbrev  0x0000000000003ced      0x335 vscode-build/obj/gecko_sdk_4.3.1/platform/emlib/src/em_msc.o
 .debug_abbrev  0x0000000000004022      0x299 vscode-build/obj/gecko_sdk_4.3.1/platform/emlib/src/em_system.o
 .debug_abbrev  0x00000000000042bb      0x32e vscode-build/obj/gecko_sdk_4.3.1/platform/emlib/src/em_usart.o
 .debug_abbrev  0x00000000000045e9      0x3b3 vscode-build/obj/gecko_sdk_4.3.1/platform/service/cli/src/sl_cli.o
 .debug_abbrev  0x000000000000499c      0x327 vscode-build/obj/gecko_sdk_4.3.1/platform/service/cli/src/sl_cli_arguments.o
 .debug_abbrev  0x0000000000004cc3      0x363 vscode-build/obj/gecko_sdk_4.3.1/platform/service/cli/src/sl_cli_command.o
 .debug_abbrev  0x0000000000005026      0x3af vscode-build/obj/gecko_sdk_4.3.1/platform/service/cli/src/sl_cli_input.o
 .debug_abbrev  0x00000000000053d5      0x123 vscode-build/obj/gecko_sdk_4.3.1/platform/service/cli/src/sl_cli_io.o
 .debug_abbrev  0x00000000000054f8      0x11b vscode-build/obj/gecko_sdk_4.3.1/platform/service/cli/src/sl_cli_tokenize.o
 .debug_abbrev  0x0000000000005613       0xea vscode-build/obj/gecko_sdk_4.3.1/platform/service/device_init/src/sl_device_init_dcdc_s2.o
 .debug_abbrev  0x00000000000056fd      0x148 vscode-build/obj/gecko_sdk_4.3.1/platform/service/device_init/src/sl_device_init_emu_s2.o
 .debug_abbrev  0x0000000000005845      0x17e vscode-build/obj/gecko_sdk_4.3.1/platform/service/device_init/src/sl_device_init_hfxo_s2.o
 .debug_abbrev  0x00000000000059c3       0xec vscode-build/obj/gecko_sdk_4.3.1/platform/service/device_init/src/sl_device_init_lfxo_s2.o
 .debug_abbrev  0x0000000000005aaf      0x164 vscode-build/obj/gecko_sdk_4.3.1/platform/service/device_init/src/sl_device_init_nvic.o
 .debug_abbrev  0x0000000000005c13      0x248 vscode-build/obj/gecko_sdk_4.3.1/platform/service/iostream/src/sl_iostream.o
 .debug_abbrev  0x0000000000005e5b      0x3ae vscode-build/obj/gecko_sdk_4.3.1/platform/service/iostream/src/sl_iostream_eusart.o
 .debug_abbrev  0x0000000000006209      0x177 vscode-build/obj/gecko_sdk_4.3.1/platform/service/iostream/src/sl_iostream_retarget_stdio.o
 .debug_abbrev  0x0000000000006380      0x184 vscode-build/obj/gecko_sdk_4.3.1/platform/service/iostream/src/sl_iostream_stdlib_config.o
 .debug_abbrev  0x0000000000006504      0x44a vscode-build/obj/gecko_sdk_4.3.1/platform/service/iostream/src/sl_iostream_uart.o
 .debug_abbrev  0x000000000000694e       0x5c vscode-build/obj/gecko_sdk_4.3.1/platform/service/system/src/sl_system_init.o
 .debug_abbrev  0x00000000000069aa       0x5c vscode-build/obj/gecko_sdk_4.3.1/platform/service/system/src/sl_system_process_action.o
 .debug_abbrev  0x0000000000006a06       0xee vscode-build/obj/gecko_sdk_4.3.1/platform/service/udelay/src/sl_udelay.o
 .debug_abbrev  0x0000000000006af4       0x5b vscode-build/obj/main.o
 .debug_abbrev  0x0000000000006b4f      0x26e vscode-build/obj/nvm3_app.o

.debug_aranges  0x0000000000000000     0x1100
 .debug_aranges
                0x0000000000000000       0x28 vscode-build/obj/app.o
 .debug_aranges
                0x0000000000000028       0x20 vscode-build/obj/autogen/sl_board_default_init.o
 .debug_aranges
                0x0000000000000048       0x18 vscode-build/obj/autogen/sl_cli_command_table.o
 .debug_aranges
                0x0000000000000060       0x30 vscode-build/obj/autogen/sl_cli_instances.o
 .debug_aranges
                0x0000000000000090       0x20 vscode-build/obj/autogen/sl_device_init_clocks.o
 .debug_aranges
                0x00000000000000b0       0x48 vscode-build/obj/autogen/sl_event_handler.o
 .debug_aranges
                0x00000000000000f8       0x30 vscode-build/obj/autogen/sl_iostream_init_eusart_instances.o
 .debug_aranges
                0x0000000000000128       0x70 vscode-build/obj/gecko_sdk_4.3.1/hardware/board/src/sl_board_control_gpio.o
 .debug_aranges
                0x0000000000000198       0x28 vscode-build/obj/gecko_sdk_4.3.1/hardware/board/src/sl_board_init.o
 .debug_aranges
                0x00000000000001c0       0x38 vscode-build/obj/gecko_sdk_4.3.1/hardware/driver/configuration_over_swo/src/sl_cos.o
 .debug_aranges
                0x00000000000001f8       0x30 vscode-build/obj/gecko_sdk_4.3.1/hardware/driver/mx25_flash_shutdown/src/sl_mx25_flash_shutdown_usart/sl_mx25_flash_shutdown.o
 .debug_aranges
                0x0000000000000228       0x28 vscode-build/obj/gecko_sdk_4.3.1/platform/Device/SiliconLabs/EFR32ZG23/Source/startup_efr32zg23.o
 .debug_aranges
                0x0000000000000250       0x90 vscode-build/obj/gecko_sdk_4.3.1/platform/Device/SiliconLabs/EFR32ZG23/Source/system_efr32zg23.o
 .debug_aranges
                0x00000000000002e0       0x20 vscode-build/obj/gecko_sdk_4.3.1/platform/common/src/sl_assert.o
 .debug_aranges
                0x0000000000000300       0x50 vscode-build/obj/gecko_sdk_4.3.1/platform/common/src/sl_slist.o
 .debug_aranges
                0x0000000000000350       0x50 vscode-build/obj/gecko_sdk_4.3.1/platform/common/src/sl_string.o
 .debug_aranges
                0x00000000000003a0       0x30 vscode-build/obj/gecko_sdk_4.3.1/platform/common/toolchain/src/sl_memory.o
 .debug_aranges
                0x00000000000003d0       0x48 vscode-build/obj/gecko_sdk_4.3.1/platform/driver/debug/src/sl_debug_swo.o
 .debug_aranges
                0x0000000000000418       0xa8 vscode-build/obj/gecko_sdk_4.3.1/platform/emdrv/dmadrv/src/dmadrv.o
 .debug_aranges
                0x00000000000004c0       0x28 vscode-build/obj/gecko_sdk_4.3.1/platform/emdrv/nvm3/src/nvm3_default_common_linker.o
 .debug_aranges
                0x00000000000004e8       0x50 vscode-build/obj/gecko_sdk_4.3.1/platform/emdrv/nvm3/src/nvm3_hal_flash.o
 .debug_aranges
                0x0000000000000538       0x30 vscode-build/obj/gecko_sdk_4.3.1/platform/emdrv/nvm3/src/nvm3_lock.o
 .debug_aranges
                0x0000000000000568      0x1f8 vscode-build/obj/gecko_sdk_4.3.1/platform/emlib/src/em_cmu.o
 .debug_aranges
                0x0000000000000760       0xe8 vscode-build/obj/gecko_sdk_4.3.1/platform/emlib/src/em_core.o
 .debug_aranges
                0x0000000000000848       0xf0 vscode-build/obj/gecko_sdk_4.3.1/platform/emlib/src/em_emu.o
 .debug_aranges
                0x0000000000000938       0xb0 vscode-build/obj/gecko_sdk_4.3.1/platform/emlib/src/em_eusart.o
 .debug_aranges
                0x00000000000009e8       0x68 vscode-build/obj/gecko_sdk_4.3.1/platform/emlib/src/em_gpio.o
 .debug_aranges
                0x0000000000000a50       0x50 vscode-build/obj/gecko_sdk_4.3.1/platform/emlib/src/em_ldma.o
 .debug_aranges
                0x0000000000000aa0       0x80 vscode-build/obj/gecko_sdk_4.3.1/platform/emlib/src/em_msc.o
 .debug_aranges
                0x0000000000000b20       0x78 vscode-build/obj/gecko_sdk_4.3.1/platform/emlib/src/em_system.o
 .debug_aranges
                0x0000000000000b98       0xb8 vscode-build/obj/gecko_sdk_4.3.1/platform/emlib/src/em_usart.o
 .debug_aranges
                0x0000000000000c50       0x70 vscode-build/obj/gecko_sdk_4.3.1/platform/service/cli/src/sl_cli.o
 .debug_aranges
                0x0000000000000cc0       0x48 vscode-build/obj/gecko_sdk_4.3.1/platform/service/cli/src/sl_cli_arguments.o
 .debug_aranges
                0x0000000000000d08       0x68 vscode-build/obj/gecko_sdk_4.3.1/platform/service/cli/src/sl_cli_command.o
 .debug_aranges
                0x0000000000000d70       0x50 vscode-build/obj/gecko_sdk_4.3.1/platform/service/cli/src/sl_cli_input.o
 .debug_aranges
                0x0000000000000dc0       0x30 vscode-build/obj/gecko_sdk_4.3.1/platform/service/cli/src/sl_cli_io.o
 .debug_aranges
                0x0000000000000df0       0x28 vscode-build/obj/gecko_sdk_4.3.1/platform/service/cli/src/sl_cli_tokenize.o
 .debug_aranges
                0x0000000000000e18       0x20 vscode-build/obj/gecko_sdk_4.3.1/platform/service/device_init/src/sl_device_init_dcdc_s2.o
 .debug_aranges
                0x0000000000000e38       0x20 vscode-build/obj/gecko_sdk_4.3.1/platform/service/device_init/src/sl_device_init_emu_s2.o
 .debug_aranges
                0x0000000000000e58       0x20 vscode-build/obj/gecko_sdk_4.3.1/platform/service/device_init/src/sl_device_init_hfxo_s2.o
 .debug_aranges
                0x0000000000000e78       0x20 vscode-build/obj/gecko_sdk_4.3.1/platform/service/device_init/src/sl_device_init_lfxo_s2.o
 .debug_aranges
                0x0000000000000e98       0x20 vscode-build/obj/gecko_sdk_4.3.1/platform/service/device_init/src/sl_device_init_nvic.o
 .debug_aranges
                0x0000000000000eb8       0x58 vscode-build/obj/gecko_sdk_4.3.1/platform/service/iostream/src/sl_iostream.o
 .debug_aranges
                0x0000000000000f10       0x40 vscode-build/obj/gecko_sdk_4.3.1/platform/service/iostream/src/sl_iostream_eusart.o
 .debug_aranges
                0x0000000000000f50       0x60 vscode-build/obj/gecko_sdk_4.3.1/platform/service/iostream/src/sl_iostream_retarget_stdio.o
 .debug_aranges
                0x0000000000000fb0       0x20 vscode-build/obj/gecko_sdk_4.3.1/platform/service/iostream/src/sl_iostream_stdlib_config.o
 .debug_aranges
                0x0000000000000fd0       0x58 vscode-build/obj/gecko_sdk_4.3.1/platform/service/iostream/src/sl_iostream_uart.o
 .debug_aranges
                0x0000000000001028       0x20 vscode-build/obj/gecko_sdk_4.3.1/platform/service/system/src/sl_system_init.o
 .debug_aranges
                0x0000000000001048       0x20 vscode-build/obj/gecko_sdk_4.3.1/platform/service/system/src/sl_system_process_action.o
 .debug_aranges
                0x0000000000001068       0x20 vscode-build/obj/gecko_sdk_4.3.1/platform/service/udelay/src/sl_udelay.o
 .debug_aranges
                0x0000000000001088       0x20 vscode-build/obj/main.o
 .debug_aranges
                0x00000000000010a8       0x58 vscode-build/obj/nvm3_app.o

.debug_ranges   0x0000000000000000     0x1a60
 .debug_ranges  0x0000000000000000       0x18 vscode-build/obj/app.o
 .debug_ranges  0x0000000000000018       0x10 vscode-build/obj/autogen/sl_board_default_init.o
 .debug_ranges  0x0000000000000028       0x20 vscode-build/obj/autogen/sl_cli_instances.o
 .debug_ranges  0x0000000000000048       0x10 vscode-build/obj/autogen/sl_device_init_clocks.o
 .debug_ranges  0x0000000000000058       0x50 vscode-build/obj/autogen/sl_event_handler.o
 .debug_ranges  0x00000000000000a8       0x20 vscode-build/obj/autogen/sl_iostream_init_eusart_instances.o
 .debug_ranges  0x00000000000000c8       0x60 vscode-build/obj/gecko_sdk_4.3.1/hardware/board/src/sl_board_control_gpio.o
 .debug_ranges  0x0000000000000128       0x18 vscode-build/obj/gecko_sdk_4.3.1/hardware/board/src/sl_board_init.o
 .debug_ranges  0x0000000000000140       0x40 vscode-build/obj/gecko_sdk_4.3.1/hardware/driver/configuration_over_swo/src/sl_cos.o
 .debug_ranges  0x0000000000000180       0x20 vscode-build/obj/gecko_sdk_4.3.1/hardware/driver/mx25_flash_shutdown/src/sl_mx25_flash_shutdown_usart/sl_mx25_flash_shutdown.o
 .debug_ranges  0x00000000000001a0       0x80 vscode-build/obj/gecko_sdk_4.3.1/platform/Device/SiliconLabs/EFR32ZG23/Source/startup_efr32zg23.o
 .debug_ranges  0x0000000000000220       0x98 vscode-build/obj/gecko_sdk_4.3.1/platform/Device/SiliconLabs/EFR32ZG23/Source/system_efr32zg23.o
 .debug_ranges  0x00000000000002b8       0x10 vscode-build/obj/gecko_sdk_4.3.1/platform/common/src/sl_assert.o
 .debug_ranges  0x00000000000002c8       0x58 vscode-build/obj/gecko_sdk_4.3.1/platform/common/src/sl_slist.o
 .debug_ranges  0x0000000000000320       0xb0 vscode-build/obj/gecko_sdk_4.3.1/platform/common/src/sl_string.o
 .debug_ranges  0x00000000000003d0       0x20 vscode-build/obj/gecko_sdk_4.3.1/platform/common/toolchain/src/sl_memory.o
 .debug_ranges  0x00000000000003f0       0x50 vscode-build/obj/gecko_sdk_4.3.1/platform/driver/debug/src/sl_debug_swo.o
 .debug_ranges  0x0000000000000440       0x98 vscode-build/obj/gecko_sdk_4.3.1/platform/emdrv/dmadrv/src/dmadrv.o
 .debug_ranges  0x00000000000004d8       0x18 vscode-build/obj/gecko_sdk_4.3.1/platform/emdrv/nvm3/src/nvm3_default_common_linker.o
 .debug_ranges  0x00000000000004f0       0xb8 vscode-build/obj/gecko_sdk_4.3.1/platform/emdrv/nvm3/src/nvm3_hal_flash.o
 .debug_ranges  0x00000000000005a8       0x20 vscode-build/obj/gecko_sdk_4.3.1/platform/emdrv/nvm3/src/nvm3_lock.o
 .debug_ranges  0x00000000000005c8      0x3b8 vscode-build/obj/gecko_sdk_4.3.1/platform/emlib/src/em_cmu.o
 .debug_ranges  0x0000000000000980      0x1a0 vscode-build/obj/gecko_sdk_4.3.1/platform/emlib/src/em_core.o
 .debug_ranges  0x0000000000000b20      0x258 vscode-build/obj/gecko_sdk_4.3.1/platform/emlib/src/em_emu.o
 .debug_ranges  0x0000000000000d78      0x150 vscode-build/obj/gecko_sdk_4.3.1/platform/emlib/src/em_eusart.o
 .debug_ranges  0x0000000000000ec8       0x70 vscode-build/obj/gecko_sdk_4.3.1/platform/emlib/src/em_gpio.o
 .debug_ranges  0x0000000000000f38       0xa0 vscode-build/obj/gecko_sdk_4.3.1/platform/emlib/src/em_ldma.o
 .debug_ranges  0x0000000000000fd8      0x110 vscode-build/obj/gecko_sdk_4.3.1/platform/emlib/src/em_msc.o
 .debug_ranges  0x00000000000010e8       0x80 vscode-build/obj/gecko_sdk_4.3.1/platform/emlib/src/em_system.o
 .debug_ranges  0x0000000000001168       0xa8 vscode-build/obj/gecko_sdk_4.3.1/platform/emlib/src/em_usart.o
 .debug_ranges  0x0000000000001210       0x90 vscode-build/obj/gecko_sdk_4.3.1/platform/service/cli/src/sl_cli.o
 .debug_ranges  0x00000000000012a0      0x140 vscode-build/obj/gecko_sdk_4.3.1/platform/service/cli/src/sl_cli_arguments.o
 .debug_ranges  0x00000000000013e0      0x108 vscode-build/obj/gecko_sdk_4.3.1/platform/service/cli/src/sl_cli_command.o
 .debug_ranges  0x00000000000014e8      0x178 vscode-build/obj/gecko_sdk_4.3.1/platform/service/cli/src/sl_cli_input.o
 .debug_ranges  0x0000000000001660       0x20 vscode-build/obj/gecko_sdk_4.3.1/platform/service/cli/src/sl_cli_io.o
 .debug_ranges  0x0000000000001680       0x48 vscode-build/obj/gecko_sdk_4.3.1/platform/service/cli/src/sl_cli_tokenize.o
 .debug_ranges  0x00000000000016c8       0x10 vscode-build/obj/gecko_sdk_4.3.1/platform/service/device_init/src/sl_device_init_dcdc_s2.o
 .debug_ranges  0x00000000000016d8       0x10 vscode-build/obj/gecko_sdk_4.3.1/platform/service/device_init/src/sl_device_init_emu_s2.o
 .debug_ranges  0x00000000000016e8       0x10 vscode-build/obj/gecko_sdk_4.3.1/platform/service/device_init/src/sl_device_init_hfxo_s2.o
 .debug_ranges  0x00000000000016f8       0x10 vscode-build/obj/gecko_sdk_4.3.1/platform/service/device_init/src/sl_device_init_lfxo_s2.o
 .debug_ranges  0x0000000000001708       0x58 vscode-build/obj/gecko_sdk_4.3.1/platform/service/device_init/src/sl_device_init_nvic.o
 .debug_ranges  0x0000000000001760       0x48 vscode-build/obj/gecko_sdk_4.3.1/platform/service/iostream/src/sl_iostream.o
 .debug_ranges  0x00000000000017a8       0xc0 vscode-build/obj/gecko_sdk_4.3.1/platform/service/iostream/src/sl_iostream_eusart.o
 .debug_ranges  0x0000000000001868       0x50 vscode-build/obj/gecko_sdk_4.3.1/platform/service/iostream/src/sl_iostream_retarget_stdio.o
 .debug_ranges  0x00000000000018b8       0x10 vscode-build/obj/gecko_sdk_4.3.1/platform/service/iostream/src/sl_iostream_stdlib_config.o
 .debug_ranges  0x00000000000018c8       0xf8 vscode-build/obj/gecko_sdk_4.3.1/platform/service/iostream/src/sl_iostream_uart.o
 .debug_ranges  0x00000000000019c0       0x10 vscode-build/obj/gecko_sdk_4.3.1/platform/service/system/src/sl_system_init.o
 .debug_ranges  0x00000000000019d0       0x10 vscode-build/obj/gecko_sdk_4.3.1/platform/service/system/src/sl_system_process_action.o
 .debug_ranges  0x00000000000019e0       0x28 vscode-build/obj/gecko_sdk_4.3.1/platform/service/udelay/src/sl_udelay.o
 .debug_ranges  0x0000000000001a08       0x10 vscode-build/obj/main.o
 .debug_ranges  0x0000000000001a18       0x48 vscode-build/obj/nvm3_app.o

.debug_line     0x0000000000000000    0x1369f
 .debug_line    0x0000000000000000       0x5c vscode-build/obj/app.o
 .debug_line    0x000000000000005c       0x8d vscode-build/obj/autogen/sl_board_default_init.o
 .debug_line    0x00000000000000e9      0x2a1 vscode-build/obj/autogen/sl_cli_command_table.o
 .debug_line    0x000000000000038a      0x381 vscode-build/obj/autogen/sl_cli_instances.o
 .debug_line    0x000000000000070b      0x26b vscode-build/obj/autogen/sl_device_init_clocks.o
 .debug_line    0x0000000000000976      0x5ac vscode-build/obj/autogen/sl_event_handler.o
 .debug_line    0x0000000000000f22      0x4b0 vscode-build/obj/autogen/sl_iostream_init_eusart_instances.o
 .debug_line    0x00000000000013d2      0x461 vscode-build/obj/gecko_sdk_4.3.1/hardware/board/src/sl_board_control_gpio.o
 .debug_line    0x0000000000001833      0x12f vscode-build/obj/gecko_sdk_4.3.1/hardware/board/src/sl_board_init.o
 .debug_line    0x0000000000001962      0x42b vscode-build/obj/gecko_sdk_4.3.1/hardware/driver/configuration_over_swo/src/sl_cos.o
 .debug_line    0x0000000000001d8d      0x3c0 vscode-build/obj/gecko_sdk_4.3.1/hardware/driver/mx25_flash_shutdown/src/sl_mx25_flash_shutdown_usart/sl_mx25_flash_shutdown.o
 .debug_line    0x000000000000214d      0x2d6 vscode-build/obj/gecko_sdk_4.3.1/platform/Device/SiliconLabs/EFR32ZG23/Source/startup_efr32zg23.o
 .debug_line    0x0000000000002423      0x59e vscode-build/obj/gecko_sdk_4.3.1/platform/Device/SiliconLabs/EFR32ZG23/Source/system_efr32zg23.o
 .debug_line    0x00000000000029c1       0x7f vscode-build/obj/gecko_sdk_4.3.1/platform/common/src/sl_assert.o
 .debug_line    0x0000000000002a40      0x30d vscode-build/obj/gecko_sdk_4.3.1/platform/common/src/sl_slist.o
 .debug_line    0x0000000000002d4d      0x53c vscode-build/obj/gecko_sdk_4.3.1/platform/common/src/sl_string.o
 .debug_line    0x0000000000003289      0x2c4 vscode-build/obj/gecko_sdk_4.3.1/platform/common/toolchain/src/sl_memory.o
 .debug_line    0x000000000000354d      0x544 vscode-build/obj/gecko_sdk_4.3.1/platform/driver/debug/src/sl_debug_swo.o
 .debug_line    0x0000000000003a91      0xa63 vscode-build/obj/gecko_sdk_4.3.1/platform/emdrv/dmadrv/src/dmadrv.o
 .debug_line    0x00000000000044f4      0x2e1 vscode-build/obj/gecko_sdk_4.3.1/platform/emdrv/nvm3/src/nvm3_default_common_linker.o
 .debug_line    0x00000000000047d5      0x53c vscode-build/obj/gecko_sdk_4.3.1/platform/emdrv/nvm3/src/nvm3_hal_flash.o
 .debug_line    0x0000000000004d11      0x2c5 vscode-build/obj/gecko_sdk_4.3.1/platform/emdrv/nvm3/src/nvm3_lock.o
 .debug_line    0x0000000000004fd6     0x302c vscode-build/obj/gecko_sdk_4.3.1/platform/emlib/src/em_cmu.o
 .debug_line    0x0000000000008002      0x9f5 vscode-build/obj/gecko_sdk_4.3.1/platform/emlib/src/em_core.o
 .debug_line    0x00000000000089f7      0xdcc vscode-build/obj/gecko_sdk_4.3.1/platform/emlib/src/em_emu.o
 .debug_line    0x00000000000097c3     0x11f6 vscode-build/obj/gecko_sdk_4.3.1/platform/emlib/src/em_eusart.o
 .debug_line    0x000000000000a9b9      0x6e2 vscode-build/obj/gecko_sdk_4.3.1/platform/emlib/src/em_gpio.o
 .debug_line    0x000000000000b09b      0x70f vscode-build/obj/gecko_sdk_4.3.1/platform/emlib/src/em_ldma.o
 .debug_line    0x000000000000b7aa      0x9d6 vscode-build/obj/gecko_sdk_4.3.1/platform/emlib/src/em_msc.o
 .debug_line    0x000000000000c180      0x466 vscode-build/obj/gecko_sdk_4.3.1/platform/emlib/src/em_system.o
 .debug_line    0x000000000000c5e6      0xb87 vscode-build/obj/gecko_sdk_4.3.1/platform/emlib/src/em_usart.o
 .debug_line    0x000000000000d16d      0x64a vscode-build/obj/gecko_sdk_4.3.1/platform/service/cli/src/sl_cli.o
 .debug_line    0x000000000000d7b7      0x7d8 vscode-build/obj/gecko_sdk_4.3.1/platform/service/cli/src/sl_cli_arguments.o
 .debug_line    0x000000000000df8f      0xb9c vscode-build/obj/gecko_sdk_4.3.1/platform/service/cli/src/sl_cli_command.o
 .debug_line    0x000000000000eb2b      0xc78 vscode-build/obj/gecko_sdk_4.3.1/platform/service/cli/src/sl_cli_input.o
 .debug_line    0x000000000000f7a3      0x381 vscode-build/obj/gecko_sdk_4.3.1/platform/service/cli/src/sl_cli_io.o
 .debug_line    0x000000000000fb24      0x3e1 vscode-build/obj/gecko_sdk_4.3.1/platform/service/cli/src/sl_cli_tokenize.o
 .debug_line    0x000000000000ff05      0x210 vscode-build/obj/gecko_sdk_4.3.1/platform/service/device_init/src/sl_device_init_dcdc_s2.o
 .debug_line    0x0000000000010115      0x271 vscode-build/obj/gecko_sdk_4.3.1/platform/service/device_init/src/sl_device_init_emu_s2.o
 .debug_line    0x0000000000010386      0x2cf vscode-build/obj/gecko_sdk_4.3.1/platform/service/device_init/src/sl_device_init_hfxo_s2.o
 .debug_line    0x0000000000010655      0x219 vscode-build/obj/gecko_sdk_4.3.1/platform/service/device_init/src/sl_device_init_lfxo_s2.o
 .debug_line    0x000000000001086e      0x2d3 vscode-build/obj/gecko_sdk_4.3.1/platform/service/device_init/src/sl_device_init_nvic.o
 .debug_line    0x0000000000010b41      0x550 vscode-build/obj/gecko_sdk_4.3.1/platform/service/iostream/src/sl_iostream.o
 .debug_line    0x0000000000011091      0x8e9 vscode-build/obj/gecko_sdk_4.3.1/platform/service/iostream/src/sl_iostream_eusart.o
 .debug_line    0x000000000001197a      0x408 vscode-build/obj/gecko_sdk_4.3.1/platform/service/iostream/src/sl_iostream_retarget_stdio.o
 .debug_line    0x0000000000011d82      0x235 vscode-build/obj/gecko_sdk_4.3.1/platform/service/iostream/src/sl_iostream_stdlib_config.o
 .debug_line    0x0000000000011fb7      0xb0b vscode-build/obj/gecko_sdk_4.3.1/platform/service/iostream/src/sl_iostream_uart.o
 .debug_line    0x0000000000012ac2       0xa2 vscode-build/obj/gecko_sdk_4.3.1/platform/service/system/src/sl_system_init.o
 .debug_line    0x0000000000012b64       0xab vscode-build/obj/gecko_sdk_4.3.1/platform/service/system/src/sl_system_process_action.o
 .debug_line    0x0000000000012c0f      0x28b vscode-build/obj/gecko_sdk_4.3.1/platform/service/udelay/src/sl_udelay.o
 .debug_line    0x0000000000012e9a       0xc5 vscode-build/obj/main.o
 .debug_line    0x0000000000012f5f      0x740 vscode-build/obj/nvm3_app.o

.debug_str      0x0000000000000000     0xe82a
 .debug_str     0x0000000000000000      0x12e vscode-build/obj/app.o
                                        0x150 (size before relaxing)
 .debug_str     0x000000000000012e       0x9c vscode-build/obj/autogen/sl_board_default_init.o
                                        0x1d8 (size before relaxing)
 .debug_str     0x00000000000001ca      0x27a vscode-build/obj/autogen/sl_cli_command_table.o
                                        0x476 (size before relaxing)
 .debug_str     0x0000000000000444      0x20c vscode-build/obj/autogen/sl_cli_instances.o
                                        0x643 (size before relaxing)
 .debug_str     0x0000000000000650      0xbe1 vscode-build/obj/autogen/sl_device_init_clocks.o
                                        0xe58 (size before relaxing)
 .debug_str     0x0000000000001231      0x312 vscode-build/obj/autogen/sl_event_handler.o
                                       0x1003 (size before relaxing)
 .debug_str     0x0000000000001543     0x1a0a vscode-build/obj/autogen/sl_iostream_init_eusart_instances.o
                                       0x1e98 (size before relaxing)
 .debug_str     0x0000000000002f4d      0x418 vscode-build/obj/gecko_sdk_4.3.1/hardware/board/src/sl_board_control_gpio.o
                                        0x65b (size before relaxing)
 .debug_str     0x0000000000003365       0x5a vscode-build/obj/gecko_sdk_4.3.1/hardware/board/src/sl_board_init.o
                                        0x6af (size before relaxing)
 .debug_str     0x00000000000033bf      0x191 vscode-build/obj/gecko_sdk_4.3.1/hardware/driver/configuration_over_swo/src/sl_cos.o
                                        0x3bc (size before relaxing)
 .debug_str     0x0000000000003550     0x1035 vscode-build/obj/gecko_sdk_4.3.1/hardware/driver/mx25_flash_shutdown/src/sl_mx25_flash_shutdown_usart/sl_mx25_flash_shutdown.o
                                       0x1e88 (size before relaxing)
 .debug_str     0x0000000000004585      0x141 vscode-build/obj/gecko_sdk_4.3.1/platform/Device/SiliconLabs/EFR32ZG23/Source/startup_efr32zg23.o
                                        0x2ed (size before relaxing)
 .debug_str     0x00000000000046c6      0x683 vscode-build/obj/gecko_sdk_4.3.1/platform/Device/SiliconLabs/EFR32ZG23/Source/system_efr32zg23.o
                                       0x179f (size before relaxing)
 .debug_str     0x0000000000004d49       0x30 vscode-build/obj/gecko_sdk_4.3.1/platform/common/src/sl_assert.o
                                        0x151 (size before relaxing)
 .debug_str     0x0000000000004d79       0xde vscode-build/obj/gecko_sdk_4.3.1/platform/common/src/sl_slist.o
                                        0x2a2 (size before relaxing)
 .debug_str     0x0000000000004e57       0xdf vscode-build/obj/gecko_sdk_4.3.1/platform/common/src/sl_string.o
                                        0x2ad (size before relaxing)
 .debug_str     0x0000000000004f36       0xc8 vscode-build/obj/gecko_sdk_4.3.1/platform/common/toolchain/src/sl_memory.o
                                        0x28b (size before relaxing)
 .debug_str     0x0000000000004ffe      0x326 vscode-build/obj/gecko_sdk_4.3.1/platform/driver/debug/src/sl_debug_swo.o
                                       0x1aed (size before relaxing)
 .debug_str     0x0000000000005324      0xce1 vscode-build/obj/gecko_sdk_4.3.1/platform/emdrv/dmadrv/src/dmadrv.o
                                       0x104c (size before relaxing)
 .debug_str     0x0000000000006005      0x3a1 vscode-build/obj/gecko_sdk_4.3.1/platform/emdrv/nvm3/src/nvm3_default_common_linker.o
                                        0x5a6 (size before relaxing)
 .debug_str     0x00000000000063a6      0x23b vscode-build/obj/gecko_sdk_4.3.1/platform/emdrv/nvm3/src/nvm3_hal_flash.o
                                        0x5b2 (size before relaxing)
 .debug_str     0x00000000000065e1      0x1f9 vscode-build/obj/gecko_sdk_4.3.1/platform/emdrv/nvm3/src/nvm3_lock.o
                                        0x400 (size before relaxing)
 .debug_str     0x00000000000067da     0x4025 vscode-build/obj/gecko_sdk_4.3.1/platform/emlib/src/em_cmu.o
                                       0x63f1 (size before relaxing)
 .debug_str     0x000000000000a7ff      0x2f2 vscode-build/obj/gecko_sdk_4.3.1/platform/emlib/src/em_core.o
                                        0xafb (size before relaxing)
 .debug_str     0x000000000000aaf1      0xbd8 vscode-build/obj/gecko_sdk_4.3.1/platform/emlib/src/em_emu.o
                                       0x22ba (size before relaxing)
 .debug_str     0x000000000000b6c9      0xa52 vscode-build/obj/gecko_sdk_4.3.1/platform/emlib/src/em_eusart.o
                                       0x4efd (size before relaxing)
 .debug_str     0x000000000000c11b       0xfe vscode-build/obj/gecko_sdk_4.3.1/platform/emlib/src/em_gpio.o
                                       0x1759 (size before relaxing)
 .debug_str     0x000000000000c219       0xba vscode-build/obj/gecko_sdk_4.3.1/platform/emlib/src/em_ldma.o
                                       0x1508 (size before relaxing)
 .debug_str     0x000000000000c2d3      0x3f2 vscode-build/obj/gecko_sdk_4.3.1/platform/emlib/src/em_msc.o
                                       0x1b1c (size before relaxing)
 .debug_str     0x000000000000c6c5      0x2c7 vscode-build/obj/gecko_sdk_4.3.1/platform/emlib/src/em_system.o
                                       0x15b4 (size before relaxing)
 .debug_str     0x000000000000c98c      0x341 vscode-build/obj/gecko_sdk_4.3.1/platform/emlib/src/em_usart.o
                                       0x460b (size before relaxing)
 .debug_str     0x000000000000cccd      0x1d0 vscode-build/obj/gecko_sdk_4.3.1/platform/service/cli/src/sl_cli.o
                                        0x6f8 (size before relaxing)
 .debug_str     0x000000000000ce9d      0x22b vscode-build/obj/gecko_sdk_4.3.1/platform/service/cli/src/sl_cli_arguments.o
                                        0x4ca (size before relaxing)
 .debug_str     0x000000000000d0c8      0x26f vscode-build/obj/gecko_sdk_4.3.1/platform/service/cli/src/sl_cli_command.o
                                        0x7b9 (size before relaxing)
 .debug_str     0x000000000000d337      0x19d vscode-build/obj/gecko_sdk_4.3.1/platform/service/cli/src/sl_cli_input.o
                                        0x60e (size before relaxing)
 .debug_str     0x000000000000d4d4       0x82 vscode-build/obj/gecko_sdk_4.3.1/platform/service/cli/src/sl_cli_io.o
                                        0x289 (size before relaxing)
 .debug_str     0x000000000000d556       0x4b vscode-build/obj/gecko_sdk_4.3.1/platform/service/cli/src/sl_cli_tokenize.o
                                        0x247 (size before relaxing)
 .debug_str     0x000000000000d5a1       0x4a vscode-build/obj/gecko_sdk_4.3.1/platform/service/device_init/src/sl_device_init_dcdc_s2.o
                                        0x8b8 (size before relaxing)
 .debug_str     0x000000000000d5eb       0x52 vscode-build/obj/gecko_sdk_4.3.1/platform/service/device_init/src/sl_device_init_emu_s2.o
                                        0x90f (size before relaxing)
 .debug_str     0x000000000000d63d      0x500 vscode-build/obj/gecko_sdk_4.3.1/platform/service/device_init/src/sl_device_init_hfxo_s2.o
                                        0xbaa (size before relaxing)
 .debug_str     0x000000000000db3d      0x1bf vscode-build/obj/gecko_sdk_4.3.1/platform/service/device_init/src/sl_device_init_lfxo_s2.o
                                        0x471 (size before relaxing)
 .debug_str     0x000000000000dcfc       0x47 vscode-build/obj/gecko_sdk_4.3.1/platform/service/device_init/src/sl_device_init_nvic.o
                                        0x7f6 (size before relaxing)
 .debug_str     0x000000000000dd43       0xe3 vscode-build/obj/gecko_sdk_4.3.1/platform/service/iostream/src/sl_iostream.o
                                        0x3af (size before relaxing)
 .debug_str     0x000000000000de26      0x129 vscode-build/obj/gecko_sdk_4.3.1/platform/service/iostream/src/sl_iostream_eusart.o
                                       0x332f (size before relaxing)
 .debug_str     0x000000000000df4f      0x162 vscode-build/obj/gecko_sdk_4.3.1/platform/service/iostream/src/sl_iostream_retarget_stdio.o
                                        0x3c6 (size before relaxing)
 .debug_str     0x000000000000e0b1      0x370 vscode-build/obj/gecko_sdk_4.3.1/platform/service/iostream/src/sl_iostream_stdlib_config.o
                                        0x569 (size before relaxing)
 .debug_str     0x000000000000e421      0x18b vscode-build/obj/gecko_sdk_4.3.1/platform/service/iostream/src/sl_iostream_uart.o
                                       0x102e (size before relaxing)
 .debug_str     0x000000000000e5ac       0x4c vscode-build/obj/gecko_sdk_4.3.1/platform/service/system/src/sl_system_init.o
                                        0x1a7 (size before relaxing)
 .debug_str     0x000000000000e5f8       0x60 vscode-build/obj/gecko_sdk_4.3.1/platform/service/system/src/sl_system_process_action.o
                                        0x1d4 (size before relaxing)
 .debug_str     0x000000000000e658       0x60 vscode-build/obj/gecko_sdk_4.3.1/platform/service/udelay/src/sl_udelay.o
                                        0x241 (size before relaxing)
 .debug_str     0x000000000000e6b8        0xc vscode-build/obj/main.o
                                        0x158 (size before relaxing)
 .debug_str     0x000000000000e6c4      0x166 vscode-build/obj/nvm3_app.o
                                        0x80a (size before relaxing)

.debug_frame    0x0000000000000000     0x36e8
 .debug_frame   0x0000000000000000       0x30 vscode-build/obj/app.o
 .debug_frame   0x0000000000000030       0x20 vscode-build/obj/autogen/sl_board_default_init.o
 .debug_frame   0x0000000000000050       0x64 vscode-build/obj/autogen/sl_cli_instances.o
 .debug_frame   0x00000000000000b4       0x28 vscode-build/obj/autogen/sl_device_init_clocks.o
 .debug_frame   0x00000000000000dc       0xd4 vscode-build/obj/autogen/sl_event_handler.o
 .debug_frame   0x00000000000001b0       0x64 vscode-build/obj/autogen/sl_iostream_init_eusart_instances.o
 .debug_frame   0x0000000000000214      0x110 vscode-build/obj/gecko_sdk_4.3.1/hardware/board/src/sl_board_control_gpio.o
 .debug_frame   0x0000000000000324       0x3c vscode-build/obj/gecko_sdk_4.3.1/hardware/board/src/sl_board_init.o
 .debug_frame   0x0000000000000360       0x78 vscode-build/obj/gecko_sdk_4.3.1/hardware/driver/configuration_over_swo/src/sl_cos.o
 .debug_frame   0x00000000000003d8       0x54 vscode-build/obj/gecko_sdk_4.3.1/hardware/driver/mx25_flash_shutdown/src/sl_mx25_flash_shutdown_usart/sl_mx25_flash_shutdown.o
 .debug_frame   0x000000000000042c       0x38 vscode-build/obj/gecko_sdk_4.3.1/platform/Device/SiliconLabs/EFR32ZG23/Source/startup_efr32zg23.o
 .debug_frame   0x0000000000000464      0x110 vscode-build/obj/gecko_sdk_4.3.1/platform/Device/SiliconLabs/EFR32ZG23/Source/system_efr32zg23.o
 .debug_frame   0x0000000000000574       0x20 vscode-build/obj/gecko_sdk_4.3.1/platform/common/src/sl_assert.o
 .debug_frame   0x0000000000000594       0xc8 vscode-build/obj/gecko_sdk_4.3.1/platform/common/src/sl_slist.o
 .debug_frame   0x000000000000065c       0xb8 vscode-build/obj/gecko_sdk_4.3.1/platform/common/src/sl_string.o
 .debug_frame   0x0000000000000714       0x40 vscode-build/obj/gecko_sdk_4.3.1/platform/common/toolchain/src/sl_memory.o
 .debug_frame   0x0000000000000754       0x9c vscode-build/obj/gecko_sdk_4.3.1/platform/driver/debug/src/sl_debug_swo.o
 .debug_frame   0x00000000000007f0      0x210 vscode-build/obj/gecko_sdk_4.3.1/platform/emdrv/dmadrv/src/dmadrv.o
 .debug_frame   0x0000000000000a00       0x30 vscode-build/obj/gecko_sdk_4.3.1/platform/emdrv/nvm3/src/nvm3_default_common_linker.o
 .debug_frame   0x0000000000000a30       0xb4 vscode-build/obj/gecko_sdk_4.3.1/platform/emdrv/nvm3/src/nvm3_hal_flash.o
 .debug_frame   0x0000000000000ae4       0x48 vscode-build/obj/gecko_sdk_4.3.1/platform/emdrv/nvm3/src/nvm3_lock.o
 .debug_frame   0x0000000000000b2c      0x65c vscode-build/obj/gecko_sdk_4.3.1/platform/emlib/src/em_cmu.o
 .debug_frame   0x0000000000001188      0x254 vscode-build/obj/gecko_sdk_4.3.1/platform/emlib/src/em_core.o
 .debug_frame   0x00000000000013dc      0x304 vscode-build/obj/gecko_sdk_4.3.1/platform/emlib/src/em_emu.o
 .debug_frame   0x00000000000016e0      0x23c vscode-build/obj/gecko_sdk_4.3.1/platform/emlib/src/em_eusart.o
 .debug_frame   0x000000000000191c      0x16c vscode-build/obj/gecko_sdk_4.3.1/platform/emlib/src/em_gpio.o
 .debug_frame   0x0000000000001a88       0xe0 vscode-build/obj/gecko_sdk_4.3.1/platform/emlib/src/em_ldma.o
 .debug_frame   0x0000000000001b68      0x174 vscode-build/obj/gecko_sdk_4.3.1/platform/emlib/src/em_msc.o
 .debug_frame   0x0000000000001cdc       0xd8 vscode-build/obj/gecko_sdk_4.3.1/platform/emlib/src/em_system.o
 .debug_frame   0x0000000000001db4      0x1ec vscode-build/obj/gecko_sdk_4.3.1/platform/emlib/src/em_usart.o
 .debug_frame   0x0000000000001fa0      0x128 vscode-build/obj/gecko_sdk_4.3.1/platform/service/cli/src/sl_cli.o
 .debug_frame   0x00000000000020c8       0xc4 vscode-build/obj/gecko_sdk_4.3.1/platform/service/cli/src/sl_cli_arguments.o
 .debug_frame   0x000000000000218c      0x178 vscode-build/obj/gecko_sdk_4.3.1/platform/service/cli/src/sl_cli_command.o
 .debug_frame   0x0000000000002304       0xf8 vscode-build/obj/gecko_sdk_4.3.1/platform/service/cli/src/sl_cli_input.o
 .debug_frame   0x00000000000023fc       0x74 vscode-build/obj/gecko_sdk_4.3.1/platform/service/cli/src/sl_cli_io.o
 .debug_frame   0x0000000000002470       0x50 vscode-build/obj/gecko_sdk_4.3.1/platform/service/cli/src/sl_cli_tokenize.o
 .debug_frame   0x00000000000024c0       0x28 vscode-build/obj/gecko_sdk_4.3.1/platform/service/device_init/src/sl_device_init_dcdc_s2.o
 .debug_frame   0x00000000000024e8       0x2c vscode-build/obj/gecko_sdk_4.3.1/platform/service/device_init/src/sl_device_init_emu_s2.o
 .debug_frame   0x0000000000002514       0x34 vscode-build/obj/gecko_sdk_4.3.1/platform/service/device_init/src/sl_device_init_hfxo_s2.o
 .debug_frame   0x0000000000002548       0x30 vscode-build/obj/gecko_sdk_4.3.1/platform/service/device_init/src/sl_device_init_lfxo_s2.o
 .debug_frame   0x0000000000002578       0x28 vscode-build/obj/gecko_sdk_4.3.1/platform/service/device_init/src/sl_device_init_nvic.o
 .debug_frame   0x00000000000025a0       0xfc vscode-build/obj/gecko_sdk_4.3.1/platform/service/iostream/src/sl_iostream.o
 .debug_frame   0x000000000000269c       0xa4 vscode-build/obj/gecko_sdk_4.3.1/platform/service/iostream/src/sl_iostream_eusart.o
 .debug_frame   0x0000000000002740       0xb0 vscode-build/obj/gecko_sdk_4.3.1/platform/service/iostream/src/sl_iostream_retarget_stdio.o
 .debug_frame   0x00000000000027f0       0x20 vscode-build/obj/gecko_sdk_4.3.1/platform/service/iostream/src/sl_iostream_stdlib_config.o
 .debug_frame   0x0000000000002810      0x110 vscode-build/obj/gecko_sdk_4.3.1/platform/service/iostream/src/sl_iostream_uart.o
 .debug_frame   0x0000000000002920       0x2c vscode-build/obj/gecko_sdk_4.3.1/platform/service/system/src/sl_system_init.o
 .debug_frame   0x000000000000294c       0x2c vscode-build/obj/gecko_sdk_4.3.1/platform/service/system/src/sl_system_process_action.o
 .debug_frame   0x0000000000002978       0x38 vscode-build/obj/gecko_sdk_4.3.1/platform/service/udelay/src/sl_udelay.o
 .debug_frame   0x00000000000029b0       0x28 vscode-build/obj/main.o
 .debug_frame   0x00000000000029d8      0x144 vscode-build/obj/nvm3_app.o
 .debug_frame   0x0000000000002b1c       0x2c /Applications/Simplicity Studio.app/Contents/Eclipse/developer/toolchains/gnu_arm/10.3_2021.10/bin/../lib/gcc/arm-none-eabi/10.3.1/thumb/v8-m.main+fp/hard/libgcc.a(_aeabi_uldivmod.o)
 .debug_frame   0x0000000000002b48       0x38 /Applications/Simplicity Studio.app/Contents/Eclipse/developer/toolchains/gnu_arm/10.3_2021.10/bin/../lib/gcc/arm-none-eabi/10.3.1/thumb/v8-m.main+fp/hard/libgcc.a(_udivmoddi4.o)
 .debug_frame   0x0000000000002b80       0x28 /Applications/Simplicity Studio.app/Contents/Eclipse/developer/toolchains/gnu_arm/10.3_2021.10/bin/../lib/gcc/arm-none-eabi/10.3.1/../../../../arm-none-eabi/lib/thumb/v8-m.main+fp/hard/libc_nano.a(lib_a-exit.o)
 .debug_frame   0x0000000000002ba8       0x2c /Applications/Simplicity Studio.app/Contents/Eclipse/developer/toolchains/gnu_arm/10.3_2021.10/bin/../lib/gcc/arm-none-eabi/10.3.1/../../../../arm-none-eabi/lib/thumb/v8-m.main+fp/hard/libc_nano.a(lib_a-init.o)
 .debug_frame   0x0000000000002bd4       0x28 /Applications/Simplicity Studio.app/Contents/Eclipse/developer/toolchains/gnu_arm/10.3_2021.10/bin/../lib/gcc/arm-none-eabi/10.3.1/../../../../arm-none-eabi/lib/thumb/v8-m.main+fp/hard/libc_nano.a(lib_a-memcmp.o)
 .debug_frame   0x0000000000002bfc       0x28 /Applications/Simplicity Studio.app/Contents/Eclipse/developer/toolchains/gnu_arm/10.3_2021.10/bin/../lib/gcc/arm-none-eabi/10.3.1/../../../../arm-none-eabi/lib/thumb/v8-m.main+fp/hard/libc_nano.a(lib_a-memcpy-stub.o)
 .debug_frame   0x0000000000002c24       0x28 /Applications/Simplicity Studio.app/Contents/Eclipse/developer/toolchains/gnu_arm/10.3_2021.10/bin/../lib/gcc/arm-none-eabi/10.3.1/../../../../arm-none-eabi/lib/thumb/v8-m.main+fp/hard/libc_nano.a(lib_a-memmove.o)
 .debug_frame   0x0000000000002c4c       0x20 /Applications/Simplicity Studio.app/Contents/Eclipse/developer/toolchains/gnu_arm/10.3_2021.10/bin/../lib/gcc/arm-none-eabi/10.3.1/../../../../arm-none-eabi/lib/thumb/v8-m.main+fp/hard/libc_nano.a(lib_a-memset.o)
 .debug_frame   0x0000000000002c6c       0x74 /Applications/Simplicity Studio.app/Contents/Eclipse/developer/toolchains/gnu_arm/10.3_2021.10/bin/../lib/gcc/arm-none-eabi/10.3.1/../../../../arm-none-eabi/lib/thumb/v8-m.main+fp/hard/libc_nano.a(lib_a-printf.o)
 .debug_frame   0x0000000000002ce0       0x3c /Applications/Simplicity Studio.app/Contents/Eclipse/developer/toolchains/gnu_arm/10.3_2021.10/bin/../lib/gcc/arm-none-eabi/10.3.1/../../../../arm-none-eabi/lib/thumb/v8-m.main+fp/hard/libc_nano.a(lib_a-puts.o)
 .debug_frame   0x0000000000002d1c       0x38 /Applications/Simplicity Studio.app/Contents/Eclipse/developer/toolchains/gnu_arm/10.3_2021.10/bin/../lib/gcc/arm-none-eabi/10.3.1/../../../../arm-none-eabi/lib/thumb/v8-m.main+fp/hard/libc_nano.a(lib_a-setvbuf.o)
 .debug_frame   0x0000000000002d54       0x20 /Applications/Simplicity Studio.app/Contents/Eclipse/developer/toolchains/gnu_arm/10.3_2021.10/bin/../lib/gcc/arm-none-eabi/10.3.1/../../../../arm-none-eabi/lib/thumb/v8-m.main+fp/hard/libc_nano.a(lib_a-strcmp.o)
 .debug_frame   0x0000000000002d74       0x28 /Applications/Simplicity Studio.app/Contents/Eclipse/developer/toolchains/gnu_arm/10.3_2021.10/bin/../lib/gcc/arm-none-eabi/10.3.1/../../../../arm-none-eabi/lib/thumb/v8-m.main+fp/hard/libc_nano.a(lib_a-strncmp.o)
 .debug_frame   0x0000000000002d9c       0x64 /Applications/Simplicity Studio.app/Contents/Eclipse/developer/toolchains/gnu_arm/10.3_2021.10/bin/../lib/gcc/arm-none-eabi/10.3.1/../../../../arm-none-eabi/lib/thumb/v8-m.main+fp/hard/libc_nano.a(lib_a-strtol.o)
 .debug_frame   0x0000000000002e00       0x70 /Applications/Simplicity Studio.app/Contents/Eclipse/developer/toolchains/gnu_arm/10.3_2021.10/bin/../lib/gcc/arm-none-eabi/10.3.1/../../../../arm-none-eabi/lib/thumb/v8-m.main+fp/hard/libc_nano.a(lib_a-strtoll.o)
 .debug_frame   0x0000000000002e70       0x64 /Applications/Simplicity Studio.app/Contents/Eclipse/developer/toolchains/gnu_arm/10.3_2021.10/bin/../lib/gcc/arm-none-eabi/10.3.1/../../../../arm-none-eabi/lib/thumb/v8-m.main+fp/hard/libc_nano.a(lib_a-strtoul.o)
 .debug_frame   0x0000000000002ed4       0x54 /Applications/Simplicity Studio.app/Contents/Eclipse/developer/toolchains/gnu_arm/10.3_2021.10/bin/../lib/gcc/arm-none-eabi/10.3.1/../../../../arm-none-eabi/lib/thumb/v8-m.main+fp/hard/libc_nano.a(lib_a-vprintf.o)
 .debug_frame   0x0000000000002f28       0x40 /Applications/Simplicity Studio.app/Contents/Eclipse/developer/toolchains/gnu_arm/10.3_2021.10/bin/../lib/gcc/arm-none-eabi/10.3.1/../../../../arm-none-eabi/lib/thumb/v8-m.main+fp/hard/libc_nano.a(lib_a-wbuf.o)
 .debug_frame   0x0000000000002f68       0x2c /Applications/Simplicity Studio.app/Contents/Eclipse/developer/toolchains/gnu_arm/10.3_2021.10/bin/../lib/gcc/arm-none-eabi/10.3.1/../../../../arm-none-eabi/lib/thumb/v8-m.main+fp/hard/libc_nano.a(lib_a-wsetup.o)
 .debug_frame   0x0000000000002f94       0x20 /Applications/Simplicity Studio.app/Contents/Eclipse/developer/toolchains/gnu_arm/10.3_2021.10/bin/../lib/gcc/arm-none-eabi/10.3.1/../../../../arm-none-eabi/lib/thumb/v8-m.main+fp/hard/libc_nano.a(lib_a-errno.o)
 .debug_frame   0x0000000000002fb4       0x5c /Applications/Simplicity Studio.app/Contents/Eclipse/developer/toolchains/gnu_arm/10.3_2021.10/bin/../lib/gcc/arm-none-eabi/10.3.1/../../../../arm-none-eabi/lib/thumb/v8-m.main+fp/hard/libc_nano.a(lib_a-fflush.o)
 .debug_frame   0x0000000000003010      0x14c /Applications/Simplicity Studio.app/Contents/Eclipse/developer/toolchains/gnu_arm/10.3_2021.10/bin/../lib/gcc/arm-none-eabi/10.3.1/../../../../arm-none-eabi/lib/thumb/v8-m.main+fp/hard/libc_nano.a(lib_a-findfp.o)
 .debug_frame   0x000000000000315c       0x54 /Applications/Simplicity Studio.app/Contents/Eclipse/developer/toolchains/gnu_arm/10.3_2021.10/bin/../lib/gcc/arm-none-eabi/10.3.1/../../../../arm-none-eabi/lib/thumb/v8-m.main+fp/hard/libc_nano.a(lib_a-fwalk.o)
 .debug_frame   0x00000000000031b0       0xb0 /Applications/Simplicity Studio.app/Contents/Eclipse/developer/toolchains/gnu_arm/10.3_2021.10/bin/../lib/gcc/arm-none-eabi/10.3.1/../../../../arm-none-eabi/lib/thumb/v8-m.main+fp/hard/libc_nano.a(lib_a-lock.o)
 .debug_frame   0x0000000000003260       0x58 /Applications/Simplicity Studio.app/Contents/Eclipse/developer/toolchains/gnu_arm/10.3_2021.10/bin/../lib/gcc/arm-none-eabi/10.3.1/../../../../arm-none-eabi/lib/thumb/v8-m.main+fp/hard/libc_nano.a(lib_a-makebuf.o)
 .debug_frame   0x00000000000032b8       0x30 /Applications/Simplicity Studio.app/Contents/Eclipse/developer/toolchains/gnu_arm/10.3_2021.10/bin/../lib/gcc/arm-none-eabi/10.3.1/../../../../arm-none-eabi/lib/thumb/v8-m.main+fp/hard/libc_nano.a(lib_a-malloc.o)
 .debug_frame   0x00000000000032e8       0x38 /Applications/Simplicity Studio.app/Contents/Eclipse/developer/toolchains/gnu_arm/10.3_2021.10/bin/../lib/gcc/arm-none-eabi/10.3.1/../../../../arm-none-eabi/lib/thumb/v8-m.main+fp/hard/libc_nano.a(lib_a-nano-freer.o)
 .debug_frame   0x0000000000003320       0x4c /Applications/Simplicity Studio.app/Contents/Eclipse/developer/toolchains/gnu_arm/10.3_2021.10/bin/../lib/gcc/arm-none-eabi/10.3.1/../../../../arm-none-eabi/lib/thumb/v8-m.main+fp/hard/libc_nano.a(lib_a-nano-mallocr.o)
 .debug_frame   0x000000000000336c       0xac /Applications/Simplicity Studio.app/Contents/Eclipse/developer/toolchains/gnu_arm/10.3_2021.10/bin/../lib/gcc/arm-none-eabi/10.3.1/../../../../arm-none-eabi/lib/thumb/v8-m.main+fp/hard/libc_nano.a(lib_a-nano-vfprintf.o)
 .debug_frame   0x0000000000003418       0x60 /Applications/Simplicity Studio.app/Contents/Eclipse/developer/toolchains/gnu_arm/10.3_2021.10/bin/../lib/gcc/arm-none-eabi/10.3.1/../../../../arm-none-eabi/lib/thumb/v8-m.main+fp/hard/libc_nano.a(lib_a-nano-vfprintf_i.o)
 .debug_frame   0x0000000000003478       0x2c /Applications/Simplicity Studio.app/Contents/Eclipse/developer/toolchains/gnu_arm/10.3_2021.10/bin/../lib/gcc/arm-none-eabi/10.3.1/../../../../arm-none-eabi/lib/thumb/v8-m.main+fp/hard/libc_nano.a(lib_a-sbrkr.o)
 .debug_frame   0x00000000000034a4       0x88 /Applications/Simplicity Studio.app/Contents/Eclipse/developer/toolchains/gnu_arm/10.3_2021.10/bin/../lib/gcc/arm-none-eabi/10.3.1/../../../../arm-none-eabi/lib/thumb/v8-m.main+fp/hard/libc_nano.a(lib_a-stdio.o)
 .debug_frame   0x000000000000352c       0x2c /Applications/Simplicity Studio.app/Contents/Eclipse/developer/toolchains/gnu_arm/10.3_2021.10/bin/../lib/gcc/arm-none-eabi/10.3.1/../../../../arm-none-eabi/lib/thumb/v8-m.main+fp/hard/libc_nano.a(lib_a-writer.o)
 .debug_frame   0x0000000000003558       0x2c /Applications/Simplicity Studio.app/Contents/Eclipse/developer/toolchains/gnu_arm/10.3_2021.10/bin/../lib/gcc/arm-none-eabi/10.3.1/../../../../arm-none-eabi/lib/thumb/v8-m.main+fp/hard/libc_nano.a(lib_a-closer.o)
 .debug_frame   0x0000000000003584       0x2c /Applications/Simplicity Studio.app/Contents/Eclipse/developer/toolchains/gnu_arm/10.3_2021.10/bin/../lib/gcc/arm-none-eabi/10.3.1/../../../../arm-none-eabi/lib/thumb/v8-m.main+fp/hard/libc_nano.a(lib_a-fstatr.o)
 .debug_frame   0x00000000000035b0       0x2c /Applications/Simplicity Studio.app/Contents/Eclipse/developer/toolchains/gnu_arm/10.3_2021.10/bin/../lib/gcc/arm-none-eabi/10.3.1/../../../../arm-none-eabi/lib/thumb/v8-m.main+fp/hard/libc_nano.a(lib_a-isattyr.o)
 .debug_frame   0x00000000000035dc       0x2c /Applications/Simplicity Studio.app/Contents/Eclipse/developer/toolchains/gnu_arm/10.3_2021.10/bin/../lib/gcc/arm-none-eabi/10.3.1/../../../../arm-none-eabi/lib/thumb/v8-m.main+fp/hard/libc_nano.a(lib_a-lseekr.o)
 .debug_frame   0x0000000000003608       0x28 /Applications/Simplicity Studio.app/Contents/Eclipse/developer/toolchains/gnu_arm/10.3_2021.10/bin/../lib/gcc/arm-none-eabi/10.3.1/../../../../arm-none-eabi/lib/thumb/v8-m.main+fp/hard/libc_nano.a(lib_a-memchr-stub.o)
 .debug_frame   0x0000000000003630       0x30 /Applications/Simplicity Studio.app/Contents/Eclipse/developer/toolchains/gnu_arm/10.3_2021.10/bin/../lib/gcc/arm-none-eabi/10.3.1/../../../../arm-none-eabi/lib/thumb/v8-m.main+fp/hard/libc_nano.a(lib_a-mlock.o)
 .debug_frame   0x0000000000003660       0x2c /Applications/Simplicity Studio.app/Contents/Eclipse/developer/toolchains/gnu_arm/10.3_2021.10/bin/../lib/gcc/arm-none-eabi/10.3.1/../../../../arm-none-eabi/lib/thumb/v8-m.main+fp/hard/libc_nano.a(lib_a-readr.o)
 .debug_frame   0x000000000000368c       0x5c /Applications/Simplicity Studio.app/Contents/Eclipse/developer/toolchains/gnu_arm/10.3_2021.10/bin/../lib/gcc/arm-none-eabi/10.3.1/../../../../arm-none-eabi/lib/thumb/v8-m.main+fp/hard/libc_nano.a(lib_a-reent.o)

.debug_loc      0x0000000000000000     0xf489
 .debug_loc     0x0000000000000000       0x2f vscode-build/obj/autogen/sl_cli_instances.o
 .debug_loc     0x000000000000002f       0x4b vscode-build/obj/autogen/sl_event_handler.o
 .debug_loc     0x000000000000007a       0x51 vscode-build/obj/autogen/sl_iostream_init_eusart_instances.o
 .debug_loc     0x00000000000000cb      0x1ae vscode-build/obj/gecko_sdk_4.3.1/hardware/board/src/sl_board_control_gpio.o
 .debug_loc     0x0000000000000279      0x1ed vscode-build/obj/gecko_sdk_4.3.1/hardware/driver/configuration_over_swo/src/sl_cos.o
 .debug_loc     0x0000000000000466       0x58 vscode-build/obj/gecko_sdk_4.3.1/hardware/driver/mx25_flash_shutdown/src/sl_mx25_flash_shutdown_usart/sl_mx25_flash_shutdown.o
 .debug_loc     0x00000000000004be       0x6e vscode-build/obj/gecko_sdk_4.3.1/platform/Device/SiliconLabs/EFR32ZG23/Source/startup_efr32zg23.o
 .debug_loc     0x000000000000052c      0x199 vscode-build/obj/gecko_sdk_4.3.1/platform/Device/SiliconLabs/EFR32ZG23/Source/system_efr32zg23.o
 .debug_loc     0x00000000000006c5       0x2a vscode-build/obj/gecko_sdk_4.3.1/platform/common/src/sl_assert.o
 .debug_loc     0x00000000000006ef      0x303 vscode-build/obj/gecko_sdk_4.3.1/platform/common/src/sl_slist.o
 .debug_loc     0x00000000000009f2      0x6a0 vscode-build/obj/gecko_sdk_4.3.1/platform/common/src/sl_string.o
 .debug_loc     0x0000000000001092       0x9c vscode-build/obj/gecko_sdk_4.3.1/platform/common/toolchain/src/sl_memory.o
 .debug_loc     0x000000000000112e      0x1cd vscode-build/obj/gecko_sdk_4.3.1/platform/driver/debug/src/sl_debug_swo.o
 .debug_loc     0x00000000000012fb      0xeeb vscode-build/obj/gecko_sdk_4.3.1/platform/emdrv/dmadrv/src/dmadrv.o
 .debug_loc     0x00000000000021e6      0x510 vscode-build/obj/gecko_sdk_4.3.1/platform/emdrv/nvm3/src/nvm3_hal_flash.o
 .debug_loc     0x00000000000026f6     0x3e2c vscode-build/obj/gecko_sdk_4.3.1/platform/emlib/src/em_cmu.o
 .debug_loc     0x0000000000006522      0x7b9 vscode-build/obj/gecko_sdk_4.3.1/platform/emlib/src/em_core.o
 .debug_loc     0x0000000000006cdb      0x7b1 vscode-build/obj/gecko_sdk_4.3.1/platform/emlib/src/em_emu.o
 .debug_loc     0x000000000000748c      0xe89 vscode-build/obj/gecko_sdk_4.3.1/platform/emlib/src/em_eusart.o
 .debug_loc     0x0000000000008315      0x9bd vscode-build/obj/gecko_sdk_4.3.1/platform/emlib/src/em_gpio.o
 .debug_loc     0x0000000000008cd2      0x4e7 vscode-build/obj/gecko_sdk_4.3.1/platform/emlib/src/em_ldma.o
 .debug_loc     0x00000000000091b9      0x8f3 vscode-build/obj/gecko_sdk_4.3.1/platform/emlib/src/em_msc.o
 .debug_loc     0x0000000000009aac      0x176 vscode-build/obj/gecko_sdk_4.3.1/platform/emlib/src/em_system.o
 .debug_loc     0x0000000000009c22      0x887 vscode-build/obj/gecko_sdk_4.3.1/platform/emlib/src/em_usart.o
 .debug_loc     0x000000000000a4a9      0x4e3 vscode-build/obj/gecko_sdk_4.3.1/platform/service/cli/src/sl_cli.o
 .debug_loc     0x000000000000a98c      0xd34 vscode-build/obj/gecko_sdk_4.3.1/platform/service/cli/src/sl_cli_arguments.o
 .debug_loc     0x000000000000b6c0      0xde6 vscode-build/obj/gecko_sdk_4.3.1/platform/service/cli/src/sl_cli_command.o
 .debug_loc     0x000000000000c4a6     0x104a vscode-build/obj/gecko_sdk_4.3.1/platform/service/cli/src/sl_cli_input.o
 .debug_loc     0x000000000000d4f0       0x59 vscode-build/obj/gecko_sdk_4.3.1/platform/service/cli/src/sl_cli_io.o
 .debug_loc     0x000000000000d549      0x19c vscode-build/obj/gecko_sdk_4.3.1/platform/service/cli/src/sl_cli_tokenize.o
 .debug_loc     0x000000000000d6e5       0x76 vscode-build/obj/gecko_sdk_4.3.1/platform/service/device_init/src/sl_device_init_hfxo_s2.o
 .debug_loc     0x000000000000d75b       0x4f vscode-build/obj/gecko_sdk_4.3.1/platform/service/device_init/src/sl_device_init_nvic.o
 .debug_loc     0x000000000000d7aa      0x4d9 vscode-build/obj/gecko_sdk_4.3.1/platform/service/iostream/src/sl_iostream.o
 .debug_loc     0x000000000000dc83      0x4f8 vscode-build/obj/gecko_sdk_4.3.1/platform/service/iostream/src/sl_iostream_eusart.o
 .debug_loc     0x000000000000e17b      0x1cb vscode-build/obj/gecko_sdk_4.3.1/platform/service/iostream/src/sl_iostream_retarget_stdio.o
 .debug_loc     0x000000000000e346      0xbe8 vscode-build/obj/gecko_sdk_4.3.1/platform/service/iostream/src/sl_iostream_uart.o
 .debug_loc     0x000000000000ef2e      0x145 vscode-build/obj/gecko_sdk_4.3.1/platform/service/udelay/src/sl_udelay.o
 .debug_loc     0x000000000000f073      0x416 vscode-build/obj/nvm3_app.o
